Certificate:
    Data:
        Version: 3 (0x2)
        Serial Number: 1 (0x1)
        Signature Algorithm: sha256WithRSAEncryption
        Issuer: O=Cockroach, CN=Cockroach CA
        Validity
            Not Before: Jan  4 22:25:13 2024 GMT
            Not After : Jan  3 22:25:13 2025 GMT
        Subject: O=Cockroach
        Subject Public Key Info:
            Public Key Algorithm: rsaEncryption
                Public-Key: (2048 bit)
                Modulus:
                    00:dc:17:98:56:a1:34:80:1e:0c:8c:58:f5:3b:dd:
                    38:1a:6e:1b:28:37:3e:87:4f:dc:95:93:f1:46:7f:
                    15:d3:72:62:92:f5:3e:19:6d:8d:90:4d:9d:e4:23:
                    6d:48:c8:fe:76:17:2c:85:69:45:fa:d7:6c:e5:e4:
                    fa:cb:64:1f:4c:67:5a:59:55:e2:1f:1f:d6:24:eb:
                    96:6e:22:7b:d4:6f:ef:6f:ef:58:53:77:7a:0b:d2:
                    23:4e:85:31:89:ac:a3:4b:80:21:fd:fb:1a:84:46:
                    61:01:ce:f2:c3:e0:e4:31:44:41:b1:ca:09:13:20:
                    58:a7:26:32:d1:ab:7d:cb:1b:8a:c9:e6:eb:bf:89:
                    9d:fb:ef:3b:a8:9d:5d:03:19:48:26:c9:3a:a0:77:
                    33:80:a1:a2:b5:b1:9c:79:94:a8:10:6f:23:ff:1a:
                    b2:b7:88:0d:10:4c:78:c0:2b:c1:0c:2c:49:13:6d:
                    29:88:f9:6e:77:f4:9c:73:c9:e3:a6:de:d9:f7:78:
                    25:72:21:32:44:83:a2:30:28:8f:9f:03:b0:f0:1f:
                    45:40:7b:bd:3d:97:6d:90:62:41:60:2f:f4:52:cb:
                    60:4c:4d:71:15:5e:af:39:c0:65:f4:04:6a:ca:ea:
                    51:98:54:75:2b:19:2b:ce:af:21:20:5c:5e:16:c7:
                    d0:35
                Exponent: 65537 (0x10001)
        X509v3 extensions:
            X509v3 Key Usage: critical
                Digital Signature, Key Encipherment
            X509v3 Extended Key Usage: 
                TLS Web Server Authentication, TLS Web Client Authentication
            X509v3 Subject Alternative Name: critical
                DNS:client1
            X509v3 Subject Key Identifier: 
                62:7B:EF:F8:54:F6:43:05:FC:49:34:F6:08:AC:06:97:DC:00:A4:8D
            X509v3 Authority Key Identifier: 
                C2:EC:99:8C:26:DA:35:69:55:E6:7F:FC:D8:65:16:0B:A2:39:DC:58
    Signature Algorithm: sha256WithRSAEncryption
    Signature Value:
        1b:84:86:32:b3:95:e3:27:f6:01:fa:3b:e4:07:73:83:f1:b1:
        79:51:45:14:05:c3:f3:a0:00:81:5e:9e:4a:04:7b:44:50:9a:
        8e:f9:92:0e:94:35:80:73:6a:61:51:54:98:4d:09:97:98:ed:
        08:30:3d:e1:39:f7:31:d3:26:94:00:1f:cb:b6:05:0c:02:0f:
        98:d0:79:9c:5a:6d:9d:f3:19:8b:1a:e1:8d:4f:24:ba:b0:61:
        07:bb:22:eb:11:75:a4:72:29:59:a4:a5:da:b5:3b:3a:b4:03:
        52:0d:6b:ad:ea:96:1a:e5:61:1d:21:0e:c1:b9:32:c1:e6:00:
        58:11:b0:99:24:11:72:1a:d2:2d:a2:62:39:83:0d:1f:4e:50:
        35:28:19:5b:72:d7:f7:bb:d7:c3:92:da:00:52:cb:44:16:41:
        8a:bf:38:b0:83:69:c9:70:c3:61:5b:29:8f:7f:14:a0:34:58:
        a6:b3:97:dd:ab:56:75:69:bd:25:c1:3c:ad:1a:73:60:7c:59:
        58:d7:16:05:2a:ac:94:35:64:09:39:75:a2:e1:c8:4a:da:19:
        34:3d:01:54:1a:ba:c2:eb:4b:70:7b:50:68:2c:18:43:5a:64:
        c9:2d:67:bc:26:c5:8a:c0:e8:bb:4e:55:07:4d:ed:f3:00:66:
        37:a9:33:ac
-----BEGIN CERTIFICATE-----
MIIDRDCCAiygAwIBAgIBATANBgkqhkiG9w0BAQsFADArMRIwEAYDVQQKDAlDb2Nr
cm9hY2gxFTATBgNVBAMMDENvY2tyb2FjaCBDQTAeFw0yNDAxMDQyMjI1MTNaFw0y
NTAxMDMyMjI1MTNaMBQxEjAQBgNVBAoMCUNvY2tyb2FjaDCCASIwDQYJKoZIhvcN
AQEBBQADggEPADCCAQoCggEBANwXmFahNIAeDIxY9TvdOBpuGyg3PodP3JWT8UZ/
FdNyYpL1PhltjZBNneQjbUjI/nYXLIVpRfrXbOXk+stkH0xnWllV4h8f1iTrlm4i
e9Rv72/vWFN3egvSI06FMYmso0uAIf37GoRGYQHO8sPg5DFEQbHKCRMgWKcmMtGr
fcsbisnm67+JnfvvO6idXQMZSCbJOqB3M4ChorWxnHmUqBBvI/8asreIDRBMeMAr
wQwsSRNtKYj5bnf0nHPJ46be2fd4JXIhMkSDojAoj58DsPAfRUB7vT2XbZBiQWAv
9FLLYExNcRVerznAZfQEasrqUZhUdSsZK86vISBcXhbH0DUCAwEAAaOBiTCBhjAO
BgNVHQ8BAf8EBAMCBaAwHQYDVR0lBBYwFAYIKwYBBQUHAwEGCCsGAQUFBwMCMBUG
A1UdEQEB/wQLMAmCB2NsaWVudDEwHQYDVR0OBBYEFGJ77/hU9kMF/Ek09gisBpfc
AKSNMB8GA1UdIwQYMBaAFMLsmYwm2jVpVeZ//NhlFguiOdxYMA0GCSqGSIb3DQEB
CwUAA4IBAQAbhIYys5XjJ/YB+jvkB3OD8bF5UUUUBcPzoACBXp5KBHtEUJqO+ZIO
lDWAc2phUVSYTQmXmO0IMD3hOfcx0yaUAB/LtgUMAg+Y0HmcWm2d8xmLGuGNTyS6
sGEHuyLrEXWkcilZpKXatTs6tANSDWut6pYa5WEdIQ7BuTLB5gBYEbCZJBFyGtIt
omI5gw0fTlA1KBlbctf3u9fDktoAUstEFkGKvziwg2nJcMNhWymPfxSgNFims5fd
q1Z1ab0lwTytGnNgfFlY1xYFKqyUNWQJOXWi4chK2hk0PQFUGrrC60twe1BoLBhD
WmTJLWe8JsWKwOi7TlUHTe3zAGY3qTOs
-----END CERTIFICATE-----
