Certificate:
    Data:
        Version: 3 (0x2)
        Serial Number: 3 (0x3)
        Signature Algorithm: sha256WithRSAEncryption
        Issuer: O=Cockroach, CN=Cockroach CA
        Validity
            Not Before: Jan  4 22:42:51 2024 GMT
            Not After : Jan  3 22:42:51 2025 GMT
        Subject: O=Cockroach, CN=device_2
        Subject Public Key Info:
            Public Key Algorithm: rsaEncryption
                Public-Key: (2048 bit)
                Modulus:
                    00:c7:86:95:79:4f:b5:82:c3:4e:b0:5b:45:6c:3f:
                    50:0d:1d:73:de:90:3e:5e:ee:f4:7d:d9:48:77:11:
                    00:a1:48:22:75:aa:d2:c0:73:ec:1c:cc:1d:b2:e9:
                    b2:b7:bf:d1:a8:34:d8:7b:ec:f4:0b:be:e4:86:04:
                    02:55:90:db:ca:97:8c:06:e7:ee:ca:4a:70:cb:5d:
                    17:dc:f6:a0:af:04:74:ae:c8:0c:9a:16:a3:fd:71:
                    98:68:a9:d3:e4:9b:04:3e:0c:eb:b2:7f:ca:23:bb:
                    d8:16:b3:ad:28:f1:49:c8:c4:93:58:06:55:33:17:
                    91:46:26:12:ba:8c:38:cd:23:9c:f4:2b:c0:8f:90:
                    7f:95:fd:11:28:54:90:d0:c0:c3:0b:9a:38:36:c1:
                    9c:9c:d5:1f:97:56:e7:54:ab:4d:40:e7:81:1e:46:
                    7b:3c:02:79:e2:d0:7c:1d:a7:99:dd:b5:2a:51:bb:
                    d7:27:72:ae:8b:92:4e:2d:3f:17:6d:17:55:71:3e:
                    7b:4b:d8:92:98:81:63:a6:b7:d8:1e:b8:db:3f:b5:
                    46:97:09:44:4c:c2:b5:fb:20:ff:6c:98:7d:0d:9f:
                    e3:12:2f:90:43:89:d3:bc:ee:3e:4c:ea:57:2a:6a:
                    2c:d4:73:fa:56:62:fe:6a:4c:18:20:a8:57:0d:ee:
                    5e:b5
                Exponent: 65537 (0x10001)
        X509v3 extensions:
            X509v3 Key Usage: critical
                Digital Signature, Key Encipherment
            X509v3 Extended Key Usage: 
                TLS Web Client Authentication
            X509v3 Subject Key Identifier: 
                77:66:B9:57:F0:88:B6:B3:9C:D0:76:7D:C9:7D:2D:A0:05:D8:ED:69
            X509v3 Authority Key Identifier: 
                C2:EC:99:8C:26:DA:35:69:55:E6:7F:FC:D8:65:16:0B:A2:39:DC:58
    Signature Algorithm: sha256WithRSAEncryption
    Signature Value:
        a7:ad:e8:07:e4:51:da:8b:fc:8f:f3:cf:04:f0:d4:18:23:b4:
        19:8d:6b:57:c3:19:ae:b4:c8:2e:8f:5b:ae:c8:b6:0c:b4:4d:
        56:5b:73:a0:3f:ad:f9:4b:60:4d:18:c1:17:dc:49:74:7c:57:
        de:69:00:f5:dd:96:13:ac:b9:31:16:f7:17:c7:b7:5c:cd:50:
        1e:52:d4:ba:3c:50:f8:5a:4d:49:90:44:b5:ea:dd:43:b9:01:
        27:a4:b7:86:7f:72:a3:7c:65:10:22:73:d8:73:97:6e:0f:d9:
        bc:64:75:f8:6c:70:a4:b6:b5:d0:bd:a5:a2:e3:e1:47:58:b9:
        92:f7:57:84:54:54:91:84:c0:fa:c1:c6:66:a6:36:2e:b8:b8:
        b7:78:af:b1:04:41:3c:08:38:38:8a:56:4f:b2:66:dd:ee:6a:
        b3:9d:c0:6d:2d:c4:fc:b0:85:27:90:2d:9a:7e:a0:64:39:83:
        13:65:8d:0f:e4:44:95:60:c7:58:fc:8a:2c:89:c8:29:9e:92:
        6f:9b:a1:74:84:cf:bb:63:0b:27:24:ad:2d:60:12:a1:52:34:
        6c:e2:27:e0:9e:56:38:59:77:d5:73:e3:33:86:5b:6b:7d:3c:
        1c:39:e4:d9:8d:57:32:ec:4a:c1:4e:3a:97:79:12:93:60:f6:
        70:04:7c:88
-----BEGIN CERTIFICATE-----
MIIDNDCCAhygAwIBAgIBAzANBgkqhkiG9w0BAQsFADArMRIwEAYDVQQKDAlDb2Nr
cm9hY2gxFTATBgNVBAMMDENvY2tyb2FjaCBDQTAeFw0yNDAxMDQyMjQyNTFaFw0y
NTAxMDMyMjQyNTFaMCcxEjAQBgNVBAoMCUNvY2tyb2FjaDERMA8GA1UEAwwIZGV2
aWNlXzIwggEiMA0GCSqGSIb3DQEBAQUAA4IBDwAwggEKAoIBAQDHhpV5T7WCw06w
W0VsP1ANHXPekD5e7vR92Uh3EQChSCJ1qtLAc+wczB2y6bK3v9GoNNh77PQLvuSG
BAJVkNvKl4wG5+7KSnDLXRfc9qCvBHSuyAyaFqP9cZhoqdPkmwQ+DOuyf8oju9gW
s60o8UnIxJNYBlUzF5FGJhK6jDjNI5z0K8CPkH+V/REoVJDQwMMLmjg2wZyc1R+X
VudUq01A54EeRns8Anni0Hwdp5ndtSpRu9cncq6Lkk4tPxdtF1VxPntL2JKYgWOm
t9geuNs/tUaXCURMwrX7IP9smH0Nn+MSL5BDidO87j5M6lcqaizUc/pWYv5qTBgg
qFcN7l61AgMBAAGjZzBlMA4GA1UdDwEB/wQEAwIFoDATBgNVHSUEDDAKBggrBgEF
BQcDAjAdBgNVHQ4EFgQUd2a5V/CItrOc0HZ9yX0toAXY7WkwHwYDVR0jBBgwFoAU
wuyZjCbaNWlV5n/82GUWC6I53FgwDQYJKoZIhvcNAQELBQADggEBAKet6AfkUdqL
/I/zzwTw1BgjtBmNa1fDGa60yC6PW67Itgy0TVZbc6A/rflLYE0YwRfcSXR8V95p
APXdlhOsuTEW9xfHt1zNUB5S1Lo8UPhaTUmQRLXq3UO5ASekt4Z/cqN8ZRAic9hz
l24P2bxkdfhscKS2tdC9paLj4UdYuZL3V4RUVJGEwPrBxmamNi64uLd4r7EEQTwI
ODiKVk+yZt3uarOdwG0txPywhSeQLZp+oGQ5gxNljQ/kRJVgx1j8iiyJyCmekm+b
oXSEz7tjCyckrS1gEqFSNGziJ+CeVjhZd9Vz4zOGW2t9PBw55NmNVzLsSsFOOpd5
EpNg9nAEfIg=
-----END CERTIFICATE-----
