Certificate:
    Data:
        Version: 3 (0x2)
        Serial Number: 6 (0x6)
        Signature Algorithm: sha256WithRSAEncryption
        Issuer: O=Cockroach, CN=Cockroach CA
        Validity
            Not Before: Jan 11 01:21:02 2024 GMT
            Not After : Jan 10 01:21:02 2025 GMT
        Subject: O=Aralink, CN=device_1949585578
        Subject Public Key Info:
            Public Key Algorithm: rsaEncryption
                Public-Key: (2048 bit)
                Modulus:
                    00:b4:4e:45:54:10:36:1f:21:b3:e8:85:4b:a4:19:
                    a5:04:f3:64:52:1d:94:b1:ae:28:0d:64:00:d7:ac:
                    cb:65:41:f8:2e:f2:ec:07:1e:39:b8:1a:7d:29:25:
                    5b:f4:b6:b9:e3:a4:f5:0f:5b:bd:0e:53:44:8a:b1:
                    e6:a2:31:78:5a:4a:e9:78:ad:b8:0b:87:de:9f:11:
                    5b:11:9a:f8:04:3a:92:ef:18:77:a2:f7:a2:d0:b4:
                    90:11:f2:5e:47:15:6f:52:f8:e9:76:dc:83:cf:49:
                    3a:eb:dc:e0:3e:89:52:0d:24:38:b6:fc:50:8a:9f:
                    1e:f3:74:13:01:68:5f:1c:e0:de:d6:73:0c:5f:49:
                    2b:1a:05:8c:11:93:ac:4b:62:de:e1:c2:08:ca:4f:
                    42:c9:23:7e:32:53:07:6c:00:3c:9e:20:8a:62:f5:
                    32:ae:93:c5:dc:f7:da:47:af:3f:3b:ac:df:33:58:
                    43:56:79:fd:7a:15:ef:6f:e9:fa:20:3f:90:ba:94:
                    c9:00:93:5a:c4:bb:48:fa:b6:2a:43:35:83:a6:8b:
                    a6:d3:99:40:b7:84:27:5c:ca:fa:99:fa:db:fc:7e:
                    c6:f7:88:b3:7f:ae:ba:a7:e6:e1:29:8b:6a:98:b8:
                    35:f4:88:51:8b:e0:94:de:9d:a8:58:46:d4:52:52:
                    6f:95
                Exponent: 65537 (0x10001)
        X509v3 extensions:
            X509v3 Key Usage: critical
                Digital Signature, Key Encipherment
            X509v3 Extended Key Usage: 
                TLS Web Client Authentication
            X509v3 Basic Constraints: critical
                CA:TRUE
            X509v3 Subject Key Identifier: 
                D5:B7:6D:02:4E:CB:50:F9:E1:74:88:2B:BB:04:CB:8A:0E:4F:95:58
            X509v3 Authority Key Identifier: 
                C2:EC:99:8C:26:DA:35:69:55:E6:7F:FC:D8:65:16:0B:A2:39:DC:58
    Signature Algorithm: sha256WithRSAEncryption
    Signature Value:
        66:fc:05:d6:5d:00:62:a4:70:e6:85:41:61:38:9d:18:d9:50:
        1a:52:66:d8:dd:04:8e:b6:c8:42:00:3a:9e:63:c4:87:6b:34:
        ac:74:97:88:83:53:dc:19:70:de:3e:6b:ab:c9:04:6f:b2:bb:
        13:80:40:45:59:aa:fc:ff:40:6c:4d:0b:06:c0:fd:f1:b0:81:
        6e:df:59:db:ce:ee:ca:8e:d8:bd:d7:15:cd:59:c9:b7:44:d9:
        a9:71:99:e9:97:f9:12:f1:e1:90:65:d8:81:6d:cf:ea:ae:37:
        8c:dc:ed:57:ed:b4:f0:85:e5:19:94:f7:3c:3d:74:de:b3:69:
        08:d7:39:38:47:a3:1d:21:37:0c:53:a2:e0:31:ea:22:e2:d7:
        2f:63:be:ad:d9:7e:5b:96:73:1a:4a:a6:98:7d:be:ae:f9:07:
        f6:85:53:2c:20:57:94:35:b6:88:66:a8:d0:a8:03:b0:42:8b:
        b9:bf:21:18:3c:e5:f2:53:92:94:9d:fd:3d:44:1a:a9:03:96:
        89:c4:ff:73:10:a0:af:1f:88:5a:03:56:1a:df:cb:7a:63:39:
        23:03:7b:9a:a2:87:a5:0d:fa:24:58:96:1f:53:45:66:b2:02:
        5f:fd:6e:75:36:39:db:b8:49:a0:3a:07:2a:9f:cd:83:de:26:
        c9:1f:62:3a
-----BEGIN CERTIFICATE-----
MIIDTDCCAjSgAwIBAgIBBjANBgkqhkiG9w0BAQsFADArMRIwEAYDVQQKDAlDb2Nr
cm9hY2gxFTATBgNVBAMMDENvY2tyb2FjaCBDQTAeFw0yNDAxMTEwMTIxMDJaFw0y
NTAxMTAwMTIxMDJaMC4xEDAOBgNVBAoMB0FyYWxpbmsxGjAYBgNVBAMMEWRldmlj
ZV8xOTQ5NTg1NTc4MIIBIjANBgkqhkiG9w0BAQEFAAOCAQ8AMIIBCgKCAQEAtE5F
VBA2HyGz6IVLpBmlBPNkUh2Usa4oDWQA16zLZUH4LvLsBx45uBp9KSVb9La546T1
D1u9DlNEirHmojF4WkrpeK24C4fenxFbEZr4BDqS7xh3ovei0LSQEfJeRxVvUvjp
dtyDz0k669zgPolSDSQ4tvxQip8e83QTAWhfHODe1nMMX0krGgWMEZOsS2Le4cII
yk9CySN+MlMHbAA8niCKYvUyrpPF3PfaR68/O6zfM1hDVnn9ehXvb+n6ID+QupTJ
AJNaxLtI+rYqQzWDpoum05lAt4QnXMr6mfrb/H7G94izf666p+bhKYtqmLg19IhR
i+CU3p2oWEbUUlJvlQIDAQABo3gwdjAOBgNVHQ8BAf8EBAMCBaAwEwYDVR0lBAww
CgYIKwYBBQUHAwIwDwYDVR0TAQH/BAUwAwEB/zAdBgNVHQ4EFgQU1bdtAk7LUPnh
dIgruwTLig5PlVgwHwYDVR0jBBgwFoAUwuyZjCbaNWlV5n/82GUWC6I53FgwDQYJ
KoZIhvcNAQELBQADggEBAGb8BdZdAGKkcOaFQWE4nRjZUBpSZtjdBI62yEIAOp5j
xIdrNKx0l4iDU9wZcN4+a6vJBG+yuxOAQEVZqvz/QGxNCwbA/fGwgW7fWdvO7sqO
2L3XFc1ZybdE2alxmemX+RLx4ZBl2IFtz+quN4zc7VfttPCF5RmU9zw9dN6zaQjX
OThHox0hNwxTouAx6iLi1y9jvq3ZfluWcxpKpph9vq75B/aFUywgV5Q1tohmqNCo
A7BCi7m/IRg85fJTkpSd/T1EGqkDlonE/3MQoK8fiFoDVhrfy3pjOSMDe5qih6UN
+iRYlh9TRWayAl/9bnU2Odu4SaA6ByqfzYPeJskfYjo=
-----END CERTIFICATE-----
