Certificate:
    Data:
        Version: 3 (0x2)
        Serial Number: 7 (0x7)
        Signature Algorithm: sha256WithRSAEncryption
        Issuer: O=Cockroach, CN=Cockroach CA
        Validity
            Not Before: Jan 11 22:34:31 2024 GMT
            Not After : Jan 10 22:34:31 2025 GMT
        Subject: O=Aralink, CN=device_1949585578
        Subject Public Key Info:
            Public Key Algorithm: rsaEncryption
                Public-Key: (2048 bit)
                Modulus:
                    00:d8:ba:c5:1f:b0:12:1a:91:7d:86:2a:9f:5a:85:
                    6b:e5:ee:04:0e:e6:44:12:e5:cb:11:50:3a:42:a0:
                    19:9d:ba:fa:54:ed:bb:c7:61:68:af:52:c8:69:4d:
                    b3:6f:46:1f:1a:0e:4c:76:c0:97:d2:dd:20:8b:8c:
                    64:71:ba:81:7f:ad:89:47:ac:b7:80:e1:a6:f8:ab:
                    36:c3:de:c9:bb:a5:f4:2b:24:1f:9b:03:06:d4:4d:
                    f6:83:bd:fc:92:41:2d:df:89:3b:1f:b9:d4:fc:16:
                    a4:2d:ff:e4:5e:5a:7a:78:cb:62:b5:df:dc:b5:ca:
                    d0:22:b2:7a:0c:e6:a7:f2:5a:e0:b6:b0:3c:f3:e7:
                    b2:7c:6f:37:0f:ef:96:3f:87:45:e4:ac:01:b5:6b:
                    a0:3d:db:3b:38:bf:b1:21:e5:13:d3:61:aa:2a:4a:
                    a7:57:12:40:39:bf:02:7a:8a:f0:38:e2:fb:94:66:
                    41:0f:28:16:f0:03:8d:56:f0:a4:8d:96:d2:4c:36:
                    3b:3f:b2:95:80:6f:53:87:a5:2b:ef:98:37:67:35:
                    f5:da:9f:3b:14:c4:93:fa:f6:b9:4f:f1:4d:23:ea:
                    d6:7b:19:b3:ca:a8:13:27:ea:1b:2d:98:d4:37:f6:
                    01:0c:82:1a:a4:af:9e:df:5e:d2:9c:a1:78:3a:74:
                    a1:81
                Exponent: 65537 (0x10001)
        X509v3 extensions:
            X509v3 Key Usage: critical
                Digital Signature, Key Encipherment
            X509v3 Extended Key Usage: 
                TLS Web Client Authentication
            X509v3 Basic Constraints: critical
                CA:TRUE
            X509v3 Subject Key Identifier: 
                82:85:E1:E4:B2:E2:48:13:11:6C:B8:0F:E1:E4:8B:B5:23:0E:3B:8B
            X509v3 Authority Key Identifier: 
                C2:EC:99:8C:26:DA:35:69:55:E6:7F:FC:D8:65:16:0B:A2:39:DC:58
    Signature Algorithm: sha256WithRSAEncryption
    Signature Value:
        b4:96:48:ca:33:2a:70:f0:0d:42:5b:1a:a8:b3:ca:5c:14:ec:
        ae:a6:f0:44:91:c3:8c:71:79:cc:63:20:55:a2:96:67:ad:77:
        de:90:64:ba:e1:84:4e:f5:c5:17:5b:57:fe:cc:21:84:35:2a:
        d0:9c:64:e6:a3:1a:ed:62:5c:52:1d:79:dd:66:5c:cb:cb:b6:
        87:46:d0:01:97:f6:9d:94:9b:cc:0e:99:15:ba:10:22:52:d5:
        6f:10:5a:c0:87:63:e7:5b:bd:d2:4f:38:64:77:03:ab:fb:63:
        bb:29:05:92:64:02:5d:3e:2d:69:08:5e:ca:47:7f:eb:80:72:
        1d:dd:50:6a:2c:d6:ed:01:25:77:bb:53:7f:76:a8:59:98:6c:
        74:3e:c5:e9:d3:93:90:53:7d:96:4b:0c:84:02:db:d0:79:f7:
        8e:59:b7:64:de:94:3f:f6:6d:04:7c:ce:45:d1:80:66:bb:cd:
        6f:f3:e4:27:54:a8:23:db:ee:fb:d1:02:0d:8e:ad:f1:66:80:
        08:a8:b7:c5:cb:35:17:f7:a8:0c:b7:e4:c8:ab:ac:58:99:97:
        5d:de:e9:d3:ed:3a:83:63:b8:84:c1:b6:3c:90:c0:0c:97:d6:
        a9:6f:64:79:a7:01:54:ce:8e:98:74:54:2d:1f:f4:68:cf:48:
        63:95:e3:81
-----BEGIN CERTIFICATE-----
MIIDTDCCAjSgAwIBAgIBBzANBgkqhkiG9w0BAQsFADArMRIwEAYDVQQKDAlDb2Nr
cm9hY2gxFTATBgNVBAMMDENvY2tyb2FjaCBDQTAeFw0yNDAxMTEyMjM0MzFaFw0y
NTAxMTAyMjM0MzFaMC4xEDAOBgNVBAoMB0FyYWxpbmsxGjAYBgNVBAMMEWRldmlj
ZV8xOTQ5NTg1NTc4MIIBIjANBgkqhkiG9w0BAQEFAAOCAQ8AMIIBCgKCAQEA2LrF
H7ASGpF9hiqfWoVr5e4EDuZEEuXLEVA6QqAZnbr6VO27x2For1LIaU2zb0YfGg5M
dsCX0t0gi4xkcbqBf62JR6y3gOGm+Ks2w97Ju6X0KyQfmwMG1E32g738kkEt34k7
H7nU/BakLf/kXlp6eMtitd/ctcrQIrJ6DOan8lrgtrA88+eyfG83D++WP4dF5KwB
tWugPds7OL+xIeUT02GqKkqnVxJAOb8CeorwOOL7lGZBDygW8AONVvCkjZbSTDY7
P7KVgG9Th6Ur75g3ZzX12p87FMST+va5T/FNI+rWexmzyqgTJ+obLZjUN/YBDIIa
pK+e317SnKF4OnShgQIDAQABo3gwdjAOBgNVHQ8BAf8EBAMCBaAwEwYDVR0lBAww
CgYIKwYBBQUHAwIwDwYDVR0TAQH/BAUwAwEB/zAdBgNVHQ4EFgQUgoXh5LLiSBMR
bLgP4eSLtSMOO4swHwYDVR0jBBgwFoAUwuyZjCbaNWlV5n/82GUWC6I53FgwDQYJ
KoZIhvcNAQELBQADggEBALSWSMozKnDwDUJbGqizylwU7K6m8ESRw4xxecxjIFWi
lmetd96QZLrhhE71xRdbV/7MIYQ1KtCcZOajGu1iXFIded1mXMvLtodG0AGX9p2U
m8wOmRW6ECJS1W8QWsCHY+dbvdJPOGR3A6v7Y7spBZJkAl0+LWkIXspHf+uAch3d
UGos1u0BJXe7U392qFmYbHQ+xenTk5BTfZZLDIQC29B5945Zt2TelD/2bQR8zkXR
gGa7zW/z5CdUqCPb7vvRAg2OrfFmgAiot8XLNRf3qAy35MirrFiZl13e6dPtOoNj
uITBtjyQwAyX1qlvZHmnAVTOjph0VC0f9GjPSGOV44E=
-----END CERTIFICATE-----
