Certificate:
    Data:
        Version: 3 (0x2)
        Serial Number: 8 (0x8)
        Signature Algorithm: sha256WithRSAEncryption
        Issuer: O=Cockroach, CN=Cockroach CA
        Validity
            Not Before: Jan 11 22:36:19 2024 GMT
            Not After : Jan 10 22:36:19 2025 GMT
        Subject: O=Aralink, CN=device_1949585578
        Subject Public Key Info:
            Public Key Algorithm: rsaEncryption
                Public-Key: (2048 bit)
                Modulus:
                    00:d8:ba:c5:1f:b0:12:1a:91:7d:86:2a:9f:5a:85:
                    6b:e5:ee:04:0e:e6:44:12:e5:cb:11:50:3a:42:a0:
                    19:9d:ba:fa:54:ed:bb:c7:61:68:af:52:c8:69:4d:
                    b3:6f:46:1f:1a:0e:4c:76:c0:97:d2:dd:20:8b:8c:
                    64:71:ba:81:7f:ad:89:47:ac:b7:80:e1:a6:f8:ab:
                    36:c3:de:c9:bb:a5:f4:2b:24:1f:9b:03:06:d4:4d:
                    f6:83:bd:fc:92:41:2d:df:89:3b:1f:b9:d4:fc:16:
                    a4:2d:ff:e4:5e:5a:7a:78:cb:62:b5:df:dc:b5:ca:
                    d0:22:b2:7a:0c:e6:a7:f2:5a:e0:b6:b0:3c:f3:e7:
                    b2:7c:6f:37:0f:ef:96:3f:87:45:e4:ac:01:b5:6b:
                    a0:3d:db:3b:38:bf:b1:21:e5:13:d3:61:aa:2a:4a:
                    a7:57:12:40:39:bf:02:7a:8a:f0:38:e2:fb:94:66:
                    41:0f:28:16:f0:03:8d:56:f0:a4:8d:96:d2:4c:36:
                    3b:3f:b2:95:80:6f:53:87:a5:2b:ef:98:37:67:35:
                    f5:da:9f:3b:14:c4:93:fa:f6:b9:4f:f1:4d:23:ea:
                    d6:7b:19:b3:ca:a8:13:27:ea:1b:2d:98:d4:37:f6:
                    01:0c:82:1a:a4:af:9e:df:5e:d2:9c:a1:78:3a:74:
                    a1:81
                Exponent: 65537 (0x10001)
        X509v3 extensions:
            X509v3 Key Usage: critical
                Digital Signature, Key Encipherment
            X509v3 Extended Key Usage: 
                TLS Web Client Authentication
            X509v3 Basic Constraints: critical
                CA:TRUE
            X509v3 Subject Key Identifier: 
                82:85:E1:E4:B2:E2:48:13:11:6C:B8:0F:E1:E4:8B:B5:23:0E:3B:8B
            X509v3 Authority Key Identifier: 
                C2:EC:99:8C:26:DA:35:69:55:E6:7F:FC:D8:65:16:0B:A2:39:DC:58
    Signature Algorithm: sha256WithRSAEncryption
    Signature Value:
        6f:f1:5d:a6:5f:15:23:3b:56:a0:6c:97:d1:54:d9:de:6c:42:
        de:c9:5d:a3:d8:e0:5e:1f:51:a2:55:a3:95:c3:dc:7f:9b:3e:
        d4:20:0e:49:5d:e0:05:45:c6:ab:f3:06:b7:4f:22:84:4f:b9:
        c7:fb:bb:b5:9d:37:13:56:75:27:ff:92:76:fb:c7:44:d2:22:
        8c:40:e8:95:d0:63:c5:dd:13:e2:69:2f:5c:35:85:70:10:67:
        77:f0:7d:cb:58:ae:f3:00:24:a0:a0:15:cf:26:0e:06:66:d6:
        e8:a8:da:a2:07:94:97:5d:b0:5f:64:16:c3:1b:03:20:ce:da:
        1b:2d:4a:2b:7c:ec:fa:0b:d4:a0:5c:8d:5c:ef:54:86:98:12:
        92:15:df:07:41:88:f9:2a:e7:43:6f:be:a8:2d:02:6a:f5:e6:
        98:42:c5:4a:5a:61:8c:c3:39:19:f6:98:40:65:b0:59:d2:ac:
        e7:84:aa:2f:e1:68:7f:a2:c3:28:6e:d6:e0:c0:88:41:d9:b9:
        4a:30:7e:b0:76:09:41:05:88:eb:c5:a5:89:aa:88:a4:7b:a8:
        66:40:73:c1:0e:92:75:1d:a1:ab:28:c7:3a:c7:c0:c3:1f:07:
        e0:4d:d3:c4:8e:1a:f5:ff:b6:3d:ad:d9:50:00:b6:93:f1:fa:
        60:d2:b5:4f
-----BEGIN CERTIFICATE-----
MIIDTDCCAjSgAwIBAgIBCDANBgkqhkiG9w0BAQsFADArMRIwEAYDVQQKDAlDb2Nr
cm9hY2gxFTATBgNVBAMMDENvY2tyb2FjaCBDQTAeFw0yNDAxMTEyMjM2MTlaFw0y
NTAxMTAyMjM2MTlaMC4xEDAOBgNVBAoMB0FyYWxpbmsxGjAYBgNVBAMMEWRldmlj
ZV8xOTQ5NTg1NTc4MIIBIjANBgkqhkiG9w0BAQEFAAOCAQ8AMIIBCgKCAQEA2LrF
H7ASGpF9hiqfWoVr5e4EDuZEEuXLEVA6QqAZnbr6VO27x2For1LIaU2zb0YfGg5M
dsCX0t0gi4xkcbqBf62JR6y3gOGm+Ks2w97Ju6X0KyQfmwMG1E32g738kkEt34k7
H7nU/BakLf/kXlp6eMtitd/ctcrQIrJ6DOan8lrgtrA88+eyfG83D++WP4dF5KwB
tWugPds7OL+xIeUT02GqKkqnVxJAOb8CeorwOOL7lGZBDygW8AONVvCkjZbSTDY7
P7KVgG9Th6Ur75g3ZzX12p87FMST+va5T/FNI+rWexmzyqgTJ+obLZjUN/YBDIIa
pK+e317SnKF4OnShgQIDAQABo3gwdjAOBgNVHQ8BAf8EBAMCBaAwEwYDVR0lBAww
CgYIKwYBBQUHAwIwDwYDVR0TAQH/BAUwAwEB/zAdBgNVHQ4EFgQUgoXh5LLiSBMR
bLgP4eSLtSMOO4swHwYDVR0jBBgwFoAUwuyZjCbaNWlV5n/82GUWC6I53FgwDQYJ
KoZIhvcNAQELBQADggEBAG/xXaZfFSM7VqBsl9FU2d5sQt7JXaPY4F4fUaJVo5XD
3H+bPtQgDkld4AVFxqvzBrdPIoRPucf7u7WdNxNWdSf/knb7x0TSIoxA6JXQY8Xd
E+JpL1w1hXAQZ3fwfctYrvMAJKCgFc8mDgZm1uio2qIHlJddsF9kFsMbAyDO2hst
Sit87PoL1KBcjVzvVIaYEpIV3wdBiPkq50NvvqgtAmr15phCxUpaYYzDORn2mEBl
sFnSrOeEqi/haH+iwyhu1uDAiEHZuUowfrB2CUEFiOvFpYmqiKR7qGZAc8EOknUd
oasoxzrHwMMfB+BN08SOGvX/tj2t2VAAtpPx+mDStU8=
-----END CERTIFICATE-----
