Certificate:
    Data:
        Version: 3 (0x2)
        Serial Number: 9 (0x9)
        Signature Algorithm: sha256WithRSAEncryption
        Issuer: O=Cockroach, CN=Cockroach CA
        Validity
            Not Before: Jan 11 22:36:43 2024 GMT
            Not After : Jan 10 22:36:43 2025 GMT
        Subject: O=Aralink, CN=device_1949585578
        Subject Public Key Info:
            Public Key Algorithm: rsaEncryption
                Public-Key: (2048 bit)
                Modulus:
                    00:d8:ba:c5:1f:b0:12:1a:91:7d:86:2a:9f:5a:85:
                    6b:e5:ee:04:0e:e6:44:12:e5:cb:11:50:3a:42:a0:
                    19:9d:ba:fa:54:ed:bb:c7:61:68:af:52:c8:69:4d:
                    b3:6f:46:1f:1a:0e:4c:76:c0:97:d2:dd:20:8b:8c:
                    64:71:ba:81:7f:ad:89:47:ac:b7:80:e1:a6:f8:ab:
                    36:c3:de:c9:bb:a5:f4:2b:24:1f:9b:03:06:d4:4d:
                    f6:83:bd:fc:92:41:2d:df:89:3b:1f:b9:d4:fc:16:
                    a4:2d:ff:e4:5e:5a:7a:78:cb:62:b5:df:dc:b5:ca:
                    d0:22:b2:7a:0c:e6:a7:f2:5a:e0:b6:b0:3c:f3:e7:
                    b2:7c:6f:37:0f:ef:96:3f:87:45:e4:ac:01:b5:6b:
                    a0:3d:db:3b:38:bf:b1:21:e5:13:d3:61:aa:2a:4a:
                    a7:57:12:40:39:bf:02:7a:8a:f0:38:e2:fb:94:66:
                    41:0f:28:16:f0:03:8d:56:f0:a4:8d:96:d2:4c:36:
                    3b:3f:b2:95:80:6f:53:87:a5:2b:ef:98:37:67:35:
                    f5:da:9f:3b:14:c4:93:fa:f6:b9:4f:f1:4d:23:ea:
                    d6:7b:19:b3:ca:a8:13:27:ea:1b:2d:98:d4:37:f6:
                    01:0c:82:1a:a4:af:9e:df:5e:d2:9c:a1:78:3a:74:
                    a1:81
                Exponent: 65537 (0x10001)
        X509v3 extensions:
            X509v3 Key Usage: critical
                Digital Signature, Key Encipherment
            X509v3 Extended Key Usage: 
                TLS Web Client Authentication
            X509v3 Basic Constraints: critical
                CA:TRUE
            X509v3 Subject Key Identifier: 
                82:85:E1:E4:B2:E2:48:13:11:6C:B8:0F:E1:E4:8B:B5:23:0E:3B:8B
            X509v3 Authority Key Identifier: 
                C2:EC:99:8C:26:DA:35:69:55:E6:7F:FC:D8:65:16:0B:A2:39:DC:58
    Signature Algorithm: sha256WithRSAEncryption
    Signature Value:
        ba:d2:f4:ad:22:b0:f5:b4:2a:99:0b:a8:ee:46:eb:d4:26:f1:
        18:88:dc:78:89:3f:26:fb:a1:98:84:f9:7f:1f:f1:98:1d:f8:
        f9:ce:c3:ad:e3:e3:78:3c:12:0d:c2:da:17:73:d5:c6:f3:94:
        61:97:cb:4b:93:bd:a9:1b:a4:60:3a:eb:c2:f7:9f:21:51:8d:
        07:76:f7:08:31:4c:60:bb:05:ea:4b:14:2e:1c:cf:10:77:65:
        30:32:38:15:83:22:ec:1d:34:0a:0c:4a:be:3f:3a:4d:36:9f:
        ec:b0:c0:cf:0a:4f:cb:8d:68:b1:ba:f2:0d:2e:fb:08:3b:d7:
        73:fb:18:e5:49:68:f4:25:72:65:2a:74:06:6c:eb:d9:23:89:
        6d:7b:9b:77:61:9f:22:1d:19:97:bd:9e:41:32:d3:dd:e2:2d:
        ae:4e:9d:18:ee:6f:2d:78:e9:93:19:e4:f1:27:52:22:01:f6:
        89:1a:40:7c:bf:04:4e:2c:12:19:a5:68:fa:b0:d5:50:d9:f2:
        c3:5f:76:f9:45:4b:69:b4:e3:75:47:cc:5f:07:73:69:3d:6c:
        43:bd:b7:4d:a0:1f:44:aa:a6:59:d4:98:0b:6f:f1:f6:37:67:
        00:11:54:1d:07:40:e4:5c:f5:23:8f:a2:3d:83:3d:2c:90:38:
        d7:8f:ba:71
-----BEGIN CERTIFICATE-----
MIIDTDCCAjSgAwIBAgIBCTANBgkqhkiG9w0BAQsFADArMRIwEAYDVQQKDAlDb2Nr
cm9hY2gxFTATBgNVBAMMDENvY2tyb2FjaCBDQTAeFw0yNDAxMTEyMjM2NDNaFw0y
NTAxMTAyMjM2NDNaMC4xEDAOBgNVBAoMB0FyYWxpbmsxGjAYBgNVBAMMEWRldmlj
ZV8xOTQ5NTg1NTc4MIIBIjANBgkqhkiG9w0BAQEFAAOCAQ8AMIIBCgKCAQEA2LrF
H7ASGpF9hiqfWoVr5e4EDuZEEuXLEVA6QqAZnbr6VO27x2For1LIaU2zb0YfGg5M
dsCX0t0gi4xkcbqBf62JR6y3gOGm+Ks2w97Ju6X0KyQfmwMG1E32g738kkEt34k7
H7nU/BakLf/kXlp6eMtitd/ctcrQIrJ6DOan8lrgtrA88+eyfG83D++WP4dF5KwB
tWugPds7OL+xIeUT02GqKkqnVxJAOb8CeorwOOL7lGZBDygW8AONVvCkjZbSTDY7
P7KVgG9Th6Ur75g3ZzX12p87FMST+va5T/FNI+rWexmzyqgTJ+obLZjUN/YBDIIa
pK+e317SnKF4OnShgQIDAQABo3gwdjAOBgNVHQ8BAf8EBAMCBaAwEwYDVR0lBAww
CgYIKwYBBQUHAwIwDwYDVR0TAQH/BAUwAwEB/zAdBgNVHQ4EFgQUgoXh5LLiSBMR
bLgP4eSLtSMOO4swHwYDVR0jBBgwFoAUwuyZjCbaNWlV5n/82GUWC6I53FgwDQYJ
KoZIhvcNAQELBQADggEBALrS9K0isPW0KpkLqO5G69Qm8RiI3HiJPyb7oZiE+X8f
8Zgd+PnOw63j43g8Eg3C2hdz1cbzlGGXy0uTvakbpGA668L3nyFRjQd29wgxTGC7
BepLFC4czxB3ZTAyOBWDIuwdNAoMSr4/Ok02n+ywwM8KT8uNaLG68g0u+wg713P7
GOVJaPQlcmUqdAZs69kjiW17m3dhnyIdGZe9nkEy093iLa5OnRjuby146ZMZ5PEn
UiIB9okaQHy/BE4sEhmlaPqw1VDZ8sNfdvlFS2m043VHzF8Hc2k9bEO9t02gH0Sq
plnUmAtv8fY3ZwARVB0HQORc9SOPoj2DPSyQONePunE=
-----END CERTIFICATE-----
