Certificate:
    Data:
        Version: 3 (0x2)
        Serial Number: 10 (0xa)
        Signature Algorithm: sha256WithRSAEncryption
        Issuer: O=Cockroach, CN=Cockroach CA
        Validity
            Not Before: Jan 11 23:10:23 2024 GMT
            Not After : Jan 10 23:10:23 2025 GMT
        Subject: O=Aralink, CN=device_1949585578
        Subject Public Key Info:
            Public Key Algorithm: rsaEncryption
                Public-Key: (2048 bit)
                Modulus:
                    00:a5:8c:69:b5:a1:61:e3:0b:30:66:0c:04:3a:fa:
                    cf:5b:7a:f3:f0:34:7d:f7:2e:43:98:9e:d5:01:b9:
                    84:7b:07:68:d7:4d:bb:fd:2a:30:d5:50:eb:13:94:
                    62:84:e6:28:31:3d:ef:79:72:8a:8d:da:df:64:da:
                    8e:f6:9e:32:d7:72:97:b3:8a:f1:e1:66:46:72:36:
                    56:49:65:fe:2d:75:3f:17:b0:43:9b:d7:f5:ba:bf:
                    9c:31:0c:17:fa:8b:a0:67:74:91:f4:a3:b0:4a:c0:
                    7b:0f:ab:a8:74:cd:02:ed:4e:5c:57:7a:c2:58:dc:
                    73:a2:41:d6:0d:6d:0f:47:cb:68:0d:b6:c6:36:83:
                    fe:f8:ee:21:3e:1c:a9:8f:76:33:80:07:1c:12:aa:
                    4f:52:c7:dc:7a:70:98:b9:a8:13:5e:9e:c7:25:82:
                    9c:7a:cb:b1:9d:42:14:f0:33:35:c1:e0:96:38:35:
                    42:c2:04:2e:ff:e8:22:a8:37:6c:b3:1b:4c:21:a3:
                    dd:87:95:a4:ba:5e:db:6a:76:57:07:15:2d:09:6a:
                    99:92:b3:74:53:c5:e3:3f:cb:16:57:0f:67:7d:44:
                    76:65:cc:f2:1d:05:13:03:41:fc:03:b8:de:54:72:
                    85:e7:79:8a:97:e0:e4:c6:50:ad:af:6d:31:ef:62:
                    ec:57
                Exponent: 65537 (0x10001)
        X509v3 extensions:
            X509v3 Key Usage: critical
                Digital Signature, Key Encipherment
            X509v3 Extended Key Usage: 
                TLS Web Client Authentication
            X509v3 Basic Constraints: critical
                CA:TRUE
            X509v3 Subject Key Identifier: 
                48:0E:CC:65:FD:51:7D:99:62:2C:F2:EA:59:D5:A1:53:46:95:03:3E
            X509v3 Authority Key Identifier: 
                C2:EC:99:8C:26:DA:35:69:55:E6:7F:FC:D8:65:16:0B:A2:39:DC:58
    Signature Algorithm: sha256WithRSAEncryption
    Signature Value:
        2c:ab:94:80:a2:06:43:d0:3f:23:8a:f1:f7:ac:23:0d:88:a2:
        06:ab:b4:6c:1c:75:d5:b6:eb:c6:d2:3d:e8:73:ce:82:5c:45:
        38:96:d6:58:5c:8f:88:db:ee:da:c4:fb:67:c4:75:7e:50:63:
        3e:01:5d:a8:80:8d:5f:4a:27:46:b0:3e:a8:d9:eb:e2:ea:26:
        7c:c7:7d:7c:ad:a3:0d:d5:40:a8:68:21:a3:b5:01:1a:8e:c5:
        09:80:67:3b:4e:78:38:83:c0:64:b3:22:ac:9a:20:87:c3:d8:
        63:f6:b1:b6:5e:1c:a2:5f:9b:14:ac:5d:5d:d1:57:4e:5e:e1:
        1b:03:50:67:b5:17:69:50:cf:f4:fe:7e:67:ef:0a:b0:29:fe:
        e6:04:7a:d9:6d:86:0c:3c:c4:cc:7e:d8:59:bd:c2:39:d2:22:
        13:4a:39:93:81:2a:68:1d:88:41:87:0f:25:85:f8:7d:01:26:
        34:d7:48:2a:6f:d5:85:24:54:b7:c9:20:57:92:f9:6a:13:c9:
        d8:60:05:bf:a9:96:21:a2:59:c0:21:76:bc:e1:4c:6d:c3:9d:
        d1:9a:f9:57:74:70:f7:42:a4:e5:5f:30:7c:a9:a8:0e:dc:04:
        6b:e4:5c:d5:01:fc:a6:dd:ff:cd:a9:c8:2d:a8:1a:00:78:3d:
        a1:1d:50:8c
-----BEGIN CERTIFICATE-----
MIIDTDCCAjSgAwIBAgIBCjANBgkqhkiG9w0BAQsFADArMRIwEAYDVQQKDAlDb2Nr
cm9hY2gxFTATBgNVBAMMDENvY2tyb2FjaCBDQTAeFw0yNDAxMTEyMzEwMjNaFw0y
NTAxMTAyMzEwMjNaMC4xEDAOBgNVBAoMB0FyYWxpbmsxGjAYBgNVBAMMEWRldmlj
ZV8xOTQ5NTg1NTc4MIIBIjANBgkqhkiG9w0BAQEFAAOCAQ8AMIIBCgKCAQEApYxp
taFh4wswZgwEOvrPW3rz8DR99y5DmJ7VAbmEewdo1027/Sow1VDrE5RihOYoMT3v
eXKKjdrfZNqO9p4y13KXs4rx4WZGcjZWSWX+LXU/F7BDm9f1ur+cMQwX+ougZ3SR
9KOwSsB7D6uodM0C7U5cV3rCWNxzokHWDW0PR8toDbbGNoP++O4hPhypj3YzgAcc
EqpPUsfcenCYuagTXp7HJYKcesuxnUIU8DM1weCWODVCwgQu/+giqDdssxtMIaPd
h5Wkul7banZXBxUtCWqZkrN0U8XjP8sWVw9nfUR2ZczyHQUTA0H8A7jeVHKF53mK
l+DkxlCtr20x72LsVwIDAQABo3gwdjAOBgNVHQ8BAf8EBAMCBaAwEwYDVR0lBAww
CgYIKwYBBQUHAwIwDwYDVR0TAQH/BAUwAwEB/zAdBgNVHQ4EFgQUSA7MZf1RfZli
LPLqWdWhU0aVAz4wHwYDVR0jBBgwFoAUwuyZjCbaNWlV5n/82GUWC6I53FgwDQYJ
KoZIhvcNAQELBQADggEBACyrlICiBkPQPyOK8fesIw2IogartGwcddW268bSPehz
zoJcRTiW1lhcj4jb7trE+2fEdX5QYz4BXaiAjV9KJ0awPqjZ6+LqJnzHfXytow3V
QKhoIaO1ARqOxQmAZztOeDiDwGSzIqyaIIfD2GP2sbZeHKJfmxSsXV3RV05e4RsD
UGe1F2lQz/T+fmfvCrAp/uYEetlthgw8xMx+2Fm9wjnSIhNKOZOBKmgdiEGHDyWF
+H0BJjTXSCpv1YUkVLfJIFeS+WoTydhgBb+pliGiWcAhdrzhTG3DndGa+Vd0cPdC
pOVfMHypqA7cBGvkXNUB/Kbd/82pyC2oGgB4PaEdUIw=
-----END CERTIFICATE-----
