Certificate:
    Data:
        Version: 3 (0x2)
        Serial Number: 11 (0xb)
        Signature Algorithm: sha256WithRSAEncryption
        Issuer: O=Cockroach, CN=Cockroach CA
        Validity
            Not Before: Jan 11 23:34:09 2024 GMT
            Not After : Jan 10 23:34:09 2025 GMT
        Subject: O=Aralink, CN=device_1949585578
        Subject Public Key Info:
            Public Key Algorithm: rsaEncryption
                Public-Key: (2048 bit)
                Modulus:
                    00:b2:b1:48:c5:7f:e7:36:bb:f1:b8:1e:1d:39:81:
                    8e:59:17:36:55:74:4a:b3:cd:67:e3:ff:70:bf:6c:
                    90:4d:45:0b:1d:88:fd:2b:c5:34:af:2e:97:79:ee:
                    b7:4a:7e:ac:68:49:32:27:17:73:ec:77:7d:cb:17:
                    d9:6c:49:51:60:8a:39:fe:40:7c:e1:47:55:60:c1:
                    ae:c4:32:98:b3:4f:d0:14:f0:80:e8:8f:4f:27:dc:
                    cb:82:78:6f:a3:3e:c0:54:0a:64:2c:16:21:06:39:
                    cf:06:e4:6b:91:97:e6:9d:a3:ca:56:1f:eb:94:3e:
                    78:84:9a:4d:1d:73:1c:56:8c:2e:66:d3:e1:6f:92:
                    9a:78:3c:51:59:da:d8:ff:71:d3:dd:3a:51:23:7e:
                    cb:96:02:df:c3:0d:67:20:f9:6d:83:61:4a:b3:10:
                    ff:35:89:da:56:c7:7b:46:75:80:97:27:2b:28:4d:
                    ad:04:46:40:3a:b9:b9:34:a5:2f:dd:6a:5c:3c:3b:
                    df:08:91:d9:31:d1:17:e4:10:4e:7e:51:dc:5c:c1:
                    db:ac:fe:14:fb:af:49:72:96:78:f8:10:aa:d4:20:
                    7d:57:f0:29:60:0c:81:70:23:65:fe:5e:49:cd:5f:
                    d4:df:37:c8:05:9e:8a:8f:0e:60:26:0e:90:3a:1b:
                    18:21
                Exponent: 65537 (0x10001)
        X509v3 extensions:
            X509v3 Key Usage: critical
                Digital Signature, Key Encipherment
            X509v3 Extended Key Usage: 
                TLS Web Client Authentication
            X509v3 Basic Constraints: critical
                CA:TRUE
            X509v3 Subject Key Identifier: 
                0B:41:00:69:3D:58:FB:D9:EA:5F:B3:2D:4F:01:51:96:4B:3B:01:C9
            X509v3 Authority Key Identifier: 
                C2:EC:99:8C:26:DA:35:69:55:E6:7F:FC:D8:65:16:0B:A2:39:DC:58
    Signature Algorithm: sha256WithRSAEncryption
    Signature Value:
        b3:c9:fa:a8:e5:ab:06:a1:f2:8c:94:d7:50:36:6f:3c:56:64:
        03:7c:79:ba:aa:d3:75:bb:b0:4f:8d:32:84:21:eb:71:b0:7f:
        32:ef:c5:99:0a:84:5c:cc:6f:84:a7:d7:fb:91:12:82:48:8d:
        d5:ac:67:30:00:40:66:18:8b:ca:54:6a:04:30:7d:a7:4c:52:
        c9:a1:6a:a2:65:7e:08:77:2a:a0:45:6b:93:8b:e8:7c:ff:5b:
        be:98:f0:00:47:ee:20:1a:4b:52:a4:79:44:a6:aa:2b:2b:0b:
        00:61:b8:52:e0:c9:8d:15:b6:f5:e7:82:52:f1:d8:5e:25:ff:
        68:4a:14:15:25:f5:5f:3f:4a:98:6b:ce:ee:99:81:ab:ba:21:
        79:7b:94:84:23:d5:85:2c:e3:d9:5a:8f:3c:de:ad:83:0a:5c:
        f8:12:84:5f:7f:25:7c:46:54:3d:1c:0c:21:67:c1:c2:ae:70:
        81:82:23:7f:f2:9b:1d:a4:d3:af:00:c2:90:6d:de:35:2d:f3:
        59:aa:8a:cf:d4:37:86:b1:d3:90:36:20:83:e0:aa:37:c3:ef:
        2a:27:e6:3a:93:40:e2:de:69:e2:fb:f1:13:66:65:c7:b7:ea:
        d6:c4:6c:f7:ac:ee:80:b1:d3:aa:b2:8b:e3:f8:d3:aa:d8:e1:
        8c:ce:5a:9b
-----BEGIN CERTIFICATE-----
MIIDTDCCAjSgAwIBAgIBCzANBgkqhkiG9w0BAQsFADArMRIwEAYDVQQKDAlDb2Nr
cm9hY2gxFTATBgNVBAMMDENvY2tyb2FjaCBDQTAeFw0yNDAxMTEyMzM0MDlaFw0y
NTAxMTAyMzM0MDlaMC4xEDAOBgNVBAoMB0FyYWxpbmsxGjAYBgNVBAMMEWRldmlj
ZV8xOTQ5NTg1NTc4MIIBIjANBgkqhkiG9w0BAQEFAAOCAQ8AMIIBCgKCAQEAsrFI
xX/nNrvxuB4dOYGOWRc2VXRKs81n4/9wv2yQTUULHYj9K8U0ry6Xee63Sn6saEky
Jxdz7Hd9yxfZbElRYIo5/kB84UdVYMGuxDKYs0/QFPCA6I9PJ9zLgnhvoz7AVApk
LBYhBjnPBuRrkZfmnaPKVh/rlD54hJpNHXMcVowuZtPhb5KaeDxRWdrY/3HT3TpR
I37LlgLfww1nIPltg2FKsxD/NYnaVsd7RnWAlycrKE2tBEZAOrm5NKUv3WpcPDvf
CJHZMdEX5BBOflHcXMHbrP4U+69JcpZ4+BCq1CB9V/ApYAyBcCNl/l5JzV/U3zfI
BZ6Kjw5gJg6QOhsYIQIDAQABo3gwdjAOBgNVHQ8BAf8EBAMCBaAwEwYDVR0lBAww
CgYIKwYBBQUHAwIwDwYDVR0TAQH/BAUwAwEB/zAdBgNVHQ4EFgQUC0EAaT1Y+9nq
X7MtTwFRlks7AckwHwYDVR0jBBgwFoAUwuyZjCbaNWlV5n/82GUWC6I53FgwDQYJ
KoZIhvcNAQELBQADggEBALPJ+qjlqwah8oyU11A2bzxWZAN8ebqq03W7sE+NMoQh
63GwfzLvxZkKhFzMb4Sn1/uREoJIjdWsZzAAQGYYi8pUagQwfadMUsmhaqJlfgh3
KqBFa5OL6Hz/W76Y8ABH7iAaS1KkeUSmqisrCwBhuFLgyY0VtvXnglLx2F4l/2hK
FBUl9V8/Sphrzu6Zgau6IXl7lIQj1YUs49lajzzerYMKXPgShF9/JXxGVD0cDCFn
wcKucIGCI3/ymx2k068AwpBt3jUt81mqis/UN4ax05A2IIPgqjfD7yon5jqTQOLe
aeL78RNmZce36tbEbPes7oCx06qyi+P406rY4YzOWps=
-----END CERTIFICATE-----
