Certificate:
    Data:
        Version: 3 (0x2)
        Serial Number: 12 (0xc)
        Signature Algorithm: sha256WithRSAEncryption
        Issuer: O=Cockroach, CN=Cockroach CA
        Validity
            Not Before: Jan 11 23:53:03 2024 GMT
            Not After : Jan 10 23:53:03 2025 GMT
        Subject: O=Aralink, CN=device_1949585578
        Subject Public Key Info:
            Public Key Algorithm: rsaEncryption
                Public-Key: (2048 bit)
                Modulus:
                    00:c4:8c:ea:92:77:0e:ec:56:8e:c4:0e:c4:fc:d2:
                    0b:0e:4b:b2:70:c8:6a:18:63:e1:3e:43:39:db:2e:
                    aa:1b:43:d1:06:3a:1a:10:11:be:39:b2:c8:4f:8c:
                    28:6c:f8:b5:fb:10:0b:03:25:a7:63:c3:0a:4c:f6:
                    fb:39:69:b4:a5:fc:34:5c:4d:66:35:20:a2:60:48:
                    52:47:7f:ff:b0:7c:92:23:d5:db:79:1e:9a:2c:9d:
                    78:f9:62:84:76:42:80:75:ea:c1:c1:23:f0:88:0e:
                    bb:ba:53:a8:3b:01:6f:4c:0a:05:2d:09:f0:4e:08:
                    cf:87:59:fe:ed:34:51:51:3f:4a:6e:7b:11:e4:29:
                    72:22:12:bd:f5:5f:89:4c:f5:0d:25:d7:f4:21:72:
                    8d:95:9a:2f:a9:7c:24:16:0b:9c:ad:bf:7a:7d:82:
                    52:01:5b:20:55:17:c2:b5:4c:95:9f:da:f8:c3:f7:
                    a3:31:9b:2e:1e:2f:30:5c:c0:1a:61:26:82:7e:b4:
                    52:cd:31:3c:18:92:bb:f2:58:8a:48:b9:b0:2b:9b:
                    11:44:53:4d:6a:3a:ac:8c:da:72:70:08:71:11:41:
                    68:39:15:a3:76:19:9f:2a:0b:69:01:05:c7:c2:fa:
                    27:7c:81:38:ec:cd:64:6c:60:13:73:0e:41:a9:b2:
                    a4:e7
                Exponent: 65537 (0x10001)
        X509v3 extensions:
            X509v3 Key Usage: critical
                Digital Signature, Key Encipherment
            X509v3 Extended Key Usage: 
                TLS Web Client Authentication
            X509v3 Basic Constraints: critical
                CA:TRUE
            X509v3 Subject Key Identifier: 
                CA:39:91:9E:E2:29:FA:3B:D0:1C:3C:FA:05:CA:F7:DA:6D:92:F4:BC
            X509v3 Authority Key Identifier: 
                C2:EC:99:8C:26:DA:35:69:55:E6:7F:FC:D8:65:16:0B:A2:39:DC:58
    Signature Algorithm: sha256WithRSAEncryption
    Signature Value:
        82:59:d3:67:99:c9:22:f8:ef:74:f1:b4:a0:bd:f2:99:c8:22:
        c8:e3:b1:a2:60:fb:d7:14:a0:1f:85:25:61:d6:dd:22:e5:99:
        0d:37:3c:a5:3d:3a:a8:1a:d3:5c:f0:b6:43:3b:b3:5f:7d:6d:
        bf:90:a5:7c:93:e6:6a:97:86:a9:8b:f3:76:72:db:78:1e:19:
        ce:3c:2f:f7:dd:cc:b1:2f:e5:4f:ab:8a:a7:76:b1:a3:ab:99:
        a4:32:29:69:17:f6:39:9e:3d:73:8d:8f:c4:7a:33:21:ce:6e:
        80:95:45:12:10:4f:64:15:7d:c8:67:7b:c3:71:a2:2d:0e:ab:
        55:3c:01:ff:dd:eb:eb:cf:d8:f2:d3:2e:1b:9b:68:d5:9f:e4:
        7a:44:cf:31:e7:47:64:b0:a2:28:9f:a3:11:4a:05:26:7d:e9:
        d6:ae:7f:fe:9e:45:33:ef:01:3e:0b:ee:63:85:d2:40:57:61:
        b7:e0:9b:f1:69:22:ee:92:7a:d8:dd:ce:32:eb:bd:86:ea:50:
        62:3d:a9:0f:3b:71:ad:a7:f7:54:a1:50:30:38:f8:f1:4c:f3:
        c4:56:9d:fa:23:b5:23:69:5e:f6:77:ff:47:2b:bf:15:78:a2:
        ab:16:34:5b:74:1d:e9:16:80:3e:b0:74:85:6d:c7:59:5f:5e:
        16:74:79:63
-----BEGIN CERTIFICATE-----
MIIDTDCCAjSgAwIBAgIBDDANBgkqhkiG9w0BAQsFADArMRIwEAYDVQQKDAlDb2Nr
cm9hY2gxFTATBgNVBAMMDENvY2tyb2FjaCBDQTAeFw0yNDAxMTEyMzUzMDNaFw0y
NTAxMTAyMzUzMDNaMC4xEDAOBgNVBAoMB0FyYWxpbmsxGjAYBgNVBAMMEWRldmlj
ZV8xOTQ5NTg1NTc4MIIBIjANBgkqhkiG9w0BAQEFAAOCAQ8AMIIBCgKCAQEAxIzq
kncO7FaOxA7E/NILDkuycMhqGGPhPkM52y6qG0PRBjoaEBG+ObLIT4wobPi1+xAL
AyWnY8MKTPb7OWm0pfw0XE1mNSCiYEhSR3//sHySI9XbeR6aLJ14+WKEdkKAderB
wSPwiA67ulOoOwFvTAoFLQnwTgjPh1n+7TRRUT9KbnsR5ClyIhK99V+JTPUNJdf0
IXKNlZovqXwkFgucrb96fYJSAVsgVRfCtUyVn9r4w/ejMZsuHi8wXMAaYSaCfrRS
zTE8GJK78liKSLmwK5sRRFNNajqsjNpycAhxEUFoORWjdhmfKgtpAQXHwvonfIE4
7M1kbGATcw5BqbKk5wIDAQABo3gwdjAOBgNVHQ8BAf8EBAMCBaAwEwYDVR0lBAww
CgYIKwYBBQUHAwIwDwYDVR0TAQH/BAUwAwEB/zAdBgNVHQ4EFgQUyjmRnuIp+jvQ
HDz6Bcr32m2S9LwwHwYDVR0jBBgwFoAUwuyZjCbaNWlV5n/82GUWC6I53FgwDQYJ
KoZIhvcNAQELBQADggEBAIJZ02eZySL473TxtKC98pnIIsjjsaJg+9cUoB+FJWHW
3SLlmQ03PKU9Oqga01zwtkM7s199bb+QpXyT5mqXhqmL83Zy23geGc48L/fdzLEv
5U+riqd2saOrmaQyKWkX9jmePXONj8R6MyHOboCVRRIQT2QVfchne8Nxoi0Oq1U8
Af/d6+vP2PLTLhubaNWf5HpEzzHnR2SwoiifoxFKBSZ96dauf/6eRTPvAT4L7mOF
0kBXYbfgm/FpIu6SetjdzjLrvYbqUGI9qQ87ca2n91ShUDA4+PFM88RWnfojtSNp
XvZ3/0crvxV4oqsWNFt0HekWgD6wdIVtx1lfXhZ0eWM=
-----END CERTIFICATE-----
