Certificate:
    Data:
        Version: 3 (0x2)
        Serial Number: 13 (0xd)
        Signature Algorithm: sha256WithRSAEncryption
        Issuer: O=Cockroach, CN=Cockroach CA
        Validity
            Not Before: Jan 11 23:57:58 2024 GMT
            Not After : Jan 10 23:57:58 2025 GMT
        Subject: O=Aralink, CN=device_1949585578
        Subject Public Key Info:
            Public Key Algorithm: rsaEncryption
                Public-Key: (2048 bit)
                Modulus:
                    00:ad:e7:5d:3f:0c:e9:d9:fd:70:b4:65:d2:ec:86:
                    f0:65:c3:4f:3e:92:0c:00:81:ef:3a:d6:9d:82:da:
                    a3:76:bb:00:4e:51:a4:b4:9a:d6:54:74:a9:54:91:
                    be:18:8f:ee:6a:59:9f:c2:f1:c7:29:5f:01:16:75:
                    78:59:3e:fb:30:31:54:43:12:b9:a5:bb:3e:6e:cf:
                    10:e3:81:01:a6:f8:0d:77:62:1d:df:99:13:ff:57:
                    40:92:7e:19:79:74:da:8c:70:1c:96:8f:44:d8:e9:
                    fc:3a:73:89:98:d9:b8:0b:43:81:22:4c:8d:fc:58:
                    93:96:54:1b:02:3f:b1:46:22:7e:e8:6b:4a:e8:0e:
                    53:55:76:04:ee:f4:4c:b6:c1:3d:fc:5c:32:7e:84:
                    99:a6:31:6c:e3:29:09:ef:53:53:de:75:92:69:4e:
                    4d:f7:92:0f:0f:d9:f2:3f:94:7e:80:77:de:ea:25:
                    db:38:3d:1f:89:f6:bc:0c:01:3d:a6:28:5e:ce:57:
                    a7:49:8d:ec:6f:69:4d:0d:63:2b:84:fa:c0:88:35:
                    3a:4e:33:f8:2e:2d:8d:04:9c:0f:ce:dc:3e:43:d4:
                    2d:15:6f:4b:c4:f3:56:23:a7:bd:b2:e0:59:d8:b8:
                    ac:dd:56:2c:cc:ac:71:98:b4:a8:78:01:98:83:f8:
                    a9:21
                Exponent: 65537 (0x10001)
        X509v3 extensions:
            X509v3 Key Usage: critical
                Digital Signature, Key Encipherment
            X509v3 Extended Key Usage: 
                TLS Web Client Authentication
            X509v3 Basic Constraints: critical
                CA:TRUE
            X509v3 Subject Key Identifier: 
                51:6C:9A:96:F1:F4:86:1D:8C:91:E4:13:CF:2A:BF:AD:10:CA:34:C4
            X509v3 Authority Key Identifier: 
                C2:EC:99:8C:26:DA:35:69:55:E6:7F:FC:D8:65:16:0B:A2:39:DC:58
    Signature Algorithm: sha256WithRSAEncryption
    Signature Value:
        62:5a:d7:ae:2d:30:2c:8e:27:97:4e:a2:07:63:76:1a:32:7b:
        54:36:89:f2:b0:dd:90:04:83:18:00:8c:1a:fe:ac:39:dd:13:
        b5:e9:5a:94:5e:e9:0d:f6:0d:13:f5:20:e9:70:94:12:5f:42:
        94:ef:4c:87:4c:b1:8e:0f:2f:1c:4c:57:da:ea:9a:eb:ec:f9:
        f6:4f:02:fe:17:a7:4f:e2:04:cd:8a:99:37:e5:77:d8:13:16:
        10:4c:d8:16:1d:c7:72:78:0b:c6:8d:f3:46:46:21:f5:4d:e9:
        8f:21:18:07:b0:e7:ee:58:38:0d:5a:ec:74:e8:b7:be:ad:92:
        0a:32:cc:79:af:6f:37:65:c0:fe:42:c7:fe:62:26:0b:fa:65:
        31:a1:df:55:15:b0:ac:36:9a:17:45:aa:1d:eb:f9:f9:9e:96:
        d9:24:ef:77:5f:22:50:4e:33:20:39:a7:29:47:e6:ff:a8:d3:
        cb:b8:0f:30:0e:76:a5:b4:55:2f:b4:46:e1:3e:d7:c8:61:2c:
        1a:70:6c:89:2a:42:8f:f8:d6:f1:9e:db:34:db:8e:23:81:9e:
        14:ea:e6:16:49:e9:4c:55:dc:1f:47:b0:6e:e0:28:f4:c3:d8:
        c9:ba:f4:29:79:8f:b7:a9:8c:db:52:88:8c:ee:91:1a:b8:dc:
        c0:16:05:6f
-----BEGIN CERTIFICATE-----
MIIDTDCCAjSgAwIBAgIBDTANBgkqhkiG9w0BAQsFADArMRIwEAYDVQQKDAlDb2Nr
cm9hY2gxFTATBgNVBAMMDENvY2tyb2FjaCBDQTAeFw0yNDAxMTEyMzU3NThaFw0y
NTAxMTAyMzU3NThaMC4xEDAOBgNVBAoMB0FyYWxpbmsxGjAYBgNVBAMMEWRldmlj
ZV8xOTQ5NTg1NTc4MIIBIjANBgkqhkiG9w0BAQEFAAOCAQ8AMIIBCgKCAQEAredd
Pwzp2f1wtGXS7IbwZcNPPpIMAIHvOtadgtqjdrsATlGktJrWVHSpVJG+GI/ualmf
wvHHKV8BFnV4WT77MDFUQxK5pbs+bs8Q44EBpvgNd2Id35kT/1dAkn4ZeXTajHAc
lo9E2On8OnOJmNm4C0OBIkyN/FiTllQbAj+xRiJ+6GtK6A5TVXYE7vRMtsE9/Fwy
foSZpjFs4ykJ71NT3nWSaU5N95IPD9nyP5R+gHfe6iXbOD0fifa8DAE9pihezlen
SY3sb2lNDWMrhPrAiDU6TjP4Li2NBJwPztw+Q9QtFW9LxPNWI6e9suBZ2Lis3VYs
zKxxmLSoeAGYg/ipIQIDAQABo3gwdjAOBgNVHQ8BAf8EBAMCBaAwEwYDVR0lBAww
CgYIKwYBBQUHAwIwDwYDVR0TAQH/BAUwAwEB/zAdBgNVHQ4EFgQUUWyalvH0hh2M
keQTzyq/rRDKNMQwHwYDVR0jBBgwFoAUwuyZjCbaNWlV5n/82GUWC6I53FgwDQYJ
KoZIhvcNAQELBQADggEBAGJa164tMCyOJ5dOogdjdhoye1Q2ifKw3ZAEgxgAjBr+
rDndE7XpWpRe6Q32DRP1IOlwlBJfQpTvTIdMsY4PLxxMV9rqmuvs+fZPAv4Xp0/i
BM2KmTfld9gTFhBM2BYdx3J4C8aN80ZGIfVN6Y8hGAew5+5YOA1a7HTot76tkgoy
zHmvbzdlwP5Cx/5iJgv6ZTGh31UVsKw2mhdFqh3r+fmeltkk73dfIlBOMyA5pylH
5v+o08u4DzAOdqW0VS+0RuE+18hhLBpwbIkqQo/41vGe2zTbjiOBnhTq5hZJ6UxV
3B9HsG7gKPTD2Mm69Cl5j7epjNtSiIzukRq43MAWBW8=
-----END CERTIFICATE-----
