Certificate:
    Data:
        Version: 3 (0x2)
        Serial Number: 14 (0xe)
        Signature Algorithm: sha256WithRSAEncryption
        Issuer: O=Cockroach, CN=Cockroach CA
        Validity
            Not Before: Jan 12 00:25:24 2024 GMT
            Not After : Jan 11 00:25:24 2025 GMT
        Subject: O=Aralink, CN=device_1949585578
        Subject Public Key Info:
            Public Key Algorithm: rsaEncryption
                Public-Key: (2048 bit)
                Modulus:
                    00:a9:4e:ca:9a:56:bc:4e:a5:8b:3a:a7:c7:64:64:
                    4a:40:fc:9a:6a:af:e6:7b:e6:2d:76:a4:a2:8a:e8:
                    b0:a5:a5:01:89:46:66:84:de:9d:39:dd:5e:16:bd:
                    84:46:34:13:2a:af:96:ff:81:43:b1:da:47:b6:a5:
                    c3:d7:d0:8b:04:fb:0c:4d:cf:4e:30:cc:ec:61:15:
                    83:ed:30:9f:5d:10:82:16:d7:7b:a1:b3:93:fe:9b:
                    71:10:ec:57:d8:7d:80:10:df:65:55:1d:67:70:bb:
                    c1:2f:80:29:79:fd:26:96:d6:47:07:ef:f2:2d:20:
                    89:d7:c2:72:32:14:d8:fc:52:83:15:6b:e5:4a:11:
                    32:6f:9f:c6:c6:95:27:66:da:d8:1e:ed:7b:ce:9d:
                    91:52:a9:99:be:3f:4c:9a:e7:76:a6:90:62:2e:46:
                    ab:89:69:12:4d:df:cf:ac:13:68:90:3d:57:ca:eb:
                    ab:47:af:ab:9c:0a:ae:50:69:40:2b:31:f3:aa:29:
                    14:5a:2a:7d:92:e1:d8:6b:0d:b8:5c:71:06:af:48:
                    27:9c:b3:cd:b8:0a:81:f2:d9:70:05:0f:a6:62:59:
                    42:cb:b9:4a:66:f2:2d:0c:24:30:25:a1:89:80:0c:
                    f4:2f:9e:42:28:cf:76:33:14:96:e5:2f:e7:4d:cd:
                    e9:c7
                Exponent: 65537 (0x10001)
        X509v3 extensions:
            X509v3 Key Usage: critical
                Digital Signature, Key Encipherment
            X509v3 Extended Key Usage: 
                TLS Web Client Authentication
            X509v3 Basic Constraints: critical
                CA:TRUE
            X509v3 Subject Key Identifier: 
                1C:B1:23:F4:73:15:3F:17:EB:10:89:3A:EF:B8:5D:7B:CA:FD:0F:FA
            X509v3 Authority Key Identifier: 
                C2:EC:99:8C:26:DA:35:69:55:E6:7F:FC:D8:65:16:0B:A2:39:DC:58
    Signature Algorithm: sha256WithRSAEncryption
    Signature Value:
        7e:5b:8a:c3:a0:5a:4d:c0:74:77:23:d2:40:72:7e:72:e8:3c:
        87:93:34:2e:b5:b4:7c:7f:ea:4a:c2:8b:af:91:19:c6:42:67:
        9a:d8:ef:e7:09:f0:b9:24:01:4d:2d:c8:89:50:74:f9:7b:92:
        e6:92:15:a9:57:cf:d6:46:21:0f:10:d7:a5:26:bc:8d:50:e5:
        90:d5:ca:84:fe:ba:59:45:3c:26:58:65:c6:da:58:bd:85:98:
        65:5a:43:fe:89:41:3c:c2:76:1d:92:48:27:22:2d:44:26:ff:
        58:09:d9:5d:0f:37:78:db:99:d2:cd:64:74:a6:4a:6d:94:c7:
        24:e0:5f:c1:c3:3c:43:3a:c9:ae:e3:e9:90:c1:2e:b5:f9:bf:
        c3:d5:81:71:66:e6:fb:82:fa:3e:c6:a9:15:6b:82:57:a4:7d:
        f5:cf:f7:67:55:45:76:ff:7e:ce:0d:c0:4c:e0:7e:eb:12:0e:
        9e:b4:00:29:db:dd:cb:00:31:7b:e8:aa:b0:6d:ee:9d:7d:15:
        10:7b:98:ee:62:22:10:68:21:70:46:4a:75:49:17:df:f4:ae:
        b5:ed:f0:ee:71:54:64:77:ad:af:d2:b7:7e:d6:a3:da:45:3b:
        cd:84:ad:28:16:20:66:7e:79:4e:be:15:74:85:3d:66:91:2d:
        08:12:97:ae
-----BEGIN CERTIFICATE-----
MIIDTDCCAjSgAwIBAgIBDjANBgkqhkiG9w0BAQsFADArMRIwEAYDVQQKDAlDb2Nr
cm9hY2gxFTATBgNVBAMMDENvY2tyb2FjaCBDQTAeFw0yNDAxMTIwMDI1MjRaFw0y
NTAxMTEwMDI1MjRaMC4xEDAOBgNVBAoMB0FyYWxpbmsxGjAYBgNVBAMMEWRldmlj
ZV8xOTQ5NTg1NTc4MIIBIjANBgkqhkiG9w0BAQEFAAOCAQ8AMIIBCgKCAQEAqU7K
mla8TqWLOqfHZGRKQPyaaq/me+YtdqSiiuiwpaUBiUZmhN6dOd1eFr2ERjQTKq+W
/4FDsdpHtqXD19CLBPsMTc9OMMzsYRWD7TCfXRCCFtd7obOT/ptxEOxX2H2AEN9l
VR1ncLvBL4Apef0mltZHB+/yLSCJ18JyMhTY/FKDFWvlShEyb5/GxpUnZtrYHu17
zp2RUqmZvj9Mmud2ppBiLkariWkSTd/PrBNokD1XyuurR6+rnAquUGlAKzHzqikU
Wip9kuHYaw24XHEGr0gnnLPNuAqB8tlwBQ+mYllCy7lKZvItDCQwJaGJgAz0L55C
KM92MxSW5S/nTc3pxwIDAQABo3gwdjAOBgNVHQ8BAf8EBAMCBaAwEwYDVR0lBAww
CgYIKwYBBQUHAwIwDwYDVR0TAQH/BAUwAwEB/zAdBgNVHQ4EFgQUHLEj9HMVPxfr
EIk677hde8r9D/owHwYDVR0jBBgwFoAUwuyZjCbaNWlV5n/82GUWC6I53FgwDQYJ
KoZIhvcNAQELBQADggEBAH5bisOgWk3AdHcj0kByfnLoPIeTNC61tHx/6krCi6+R
GcZCZ5rY7+cJ8LkkAU0tyIlQdPl7kuaSFalXz9ZGIQ8Q16UmvI1Q5ZDVyoT+ullF
PCZYZcbaWL2FmGVaQ/6JQTzCdh2SSCciLUQm/1gJ2V0PN3jbmdLNZHSmSm2UxyTg
X8HDPEM6ya7j6ZDBLrX5v8PVgXFm5vuC+j7GqRVrglekffXP92dVRXb/fs4NwEzg
fusSDp60ACnb3csAMXvoqrBt7p19FRB7mO5iIhBoIXBGSnVJF9/0rrXt8O5xVGR3
ra/St37Wo9pFO82ErSgWIGZ+eU6+FXSFPWaRLQgSl64=
-----END CERTIFICATE-----
