Certificate:
    Data:
        Version: 3 (0x2)
        Serial Number: 16 (0x10)
        Signature Algorithm: sha256WithRSAEncryption
        Issuer: O=Cockroach, CN=Cockroach CA
        Validity
            Not Before: Jan 12 01:39:35 2024 GMT
            Not After : Jan 11 01:39:35 2025 GMT
        Subject: O=Aralink, CN=device_1949585578
        Subject Public Key Info:
            Public Key Algorithm: rsaEncryption
                Public-Key: (2048 bit)
                Modulus:
                    00:b0:27:5f:3d:bb:96:63:de:64:a6:61:69:1f:d6:
                    96:cd:f5:d2:42:56:2c:dc:26:b9:2e:87:84:41:09:
                    6b:e5:55:76:d0:77:8a:12:9c:73:8f:a9:67:73:8b:
                    23:90:64:52:41:fd:d6:70:6e:c7:a6:3c:ae:e3:50:
                    54:8b:8d:68:85:b0:74:a6:aa:3a:4d:3d:d4:84:81:
                    47:2d:c3:00:99:88:e6:ab:13:c1:cf:93:42:c1:ef:
                    1f:67:b4:c8:64:95:8f:34:8b:85:8d:f9:2b:14:aa:
                    b7:b2:a4:3d:14:f9:0f:d6:bb:ea:33:c0:b4:f1:50:
                    12:97:05:25:b2:18:58:fa:40:5a:0f:e6:b2:c7:63:
                    a0:be:df:59:47:62:21:d4:bc:67:0e:9e:5c:fc:de:
                    c9:a1:35:7a:4e:f2:f3:cc:2d:03:f5:0a:84:d7:16:
                    6a:15:2e:21:6e:6f:68:7b:ed:cc:8f:32:db:b7:57:
                    35:57:3c:bb:72:b9:19:61:a2:27:79:38:77:1d:60:
                    e5:6e:e0:de:e4:7d:e6:a3:20:75:45:63:8d:ee:84:
                    fe:8e:66:30:b7:e7:e2:52:b4:26:f3:fa:55:fc:c0:
                    69:85:bc:da:39:53:d9:3b:cf:f4:43:3e:44:13:4d:
                    d8:bb:1c:03:5f:60:f2:17:4f:ff:35:68:84:81:b1:
                    9a:d9
                Exponent: 65537 (0x10001)
        X509v3 extensions:
            X509v3 Key Usage: critical
                Digital Signature, Key Encipherment
            X509v3 Extended Key Usage: 
                TLS Web Client Authentication
            X509v3 Basic Constraints: critical
                CA:TRUE
            X509v3 Subject Key Identifier: 
                C1:97:3D:14:26:D7:2D:E6:B4:93:3C:A6:3A:5F:D7:4C:72:A0:80:BD
            X509v3 Authority Key Identifier: 
                C2:EC:99:8C:26:DA:35:69:55:E6:7F:FC:D8:65:16:0B:A2:39:DC:58
    Signature Algorithm: sha256WithRSAEncryption
    Signature Value:
        8e:fa:7d:37:12:cf:47:7a:40:70:ce:b0:ee:73:b9:66:1a:56:
        48:82:c3:77:af:85:fd:d7:f3:e4:8a:82:a4:7f:34:e4:7b:58:
        45:9f:69:71:e6:7b:f6:07:43:91:95:8e:e5:73:94:e0:27:91:
        06:ee:9e:34:96:06:7b:36:cf:fd:08:13:82:eb:6b:22:8f:20:
        88:a9:83:e2:9b:d6:8f:42:2c:f6:a3:6e:9a:20:12:c8:e4:7f:
        e6:eb:90:51:c3:92:3e:11:90:41:ab:f9:db:24:41:7d:6a:f9:
        fa:bf:c5:35:56:dc:61:7d:f8:c8:a7:30:a9:44:c6:1f:fd:5f:
        ea:20:73:ba:d0:47:e8:c6:d4:21:1d:c8:7f:23:81:43:73:81:
        c0:f1:81:6d:a4:6c:55:bc:ea:b1:1c:a9:33:d0:33:d8:8e:46:
        5d:8d:72:21:db:dd:16:02:35:30:50:0c:22:1a:bc:f2:ca:d9:
        7c:f7:7c:b0:ec:5e:2e:a8:a9:70:5b:83:fb:9e:ea:9a:5f:58:
        2f:9c:76:d4:49:ad:a4:2c:cd:de:46:70:cb:de:97:03:91:7b:
        b4:5d:2e:49:1d:d9:50:3e:77:7f:7f:5d:89:03:a3:0f:de:79:
        80:8e:ef:f9:3b:11:9a:46:94:3b:0a:5d:e6:7d:50:4d:99:4d:
        4d:1a:4e:6d
-----BEGIN CERTIFICATE-----
MIIDTDCCAjSgAwIBAgIBEDANBgkqhkiG9w0BAQsFADArMRIwEAYDVQQKDAlDb2Nr
cm9hY2gxFTATBgNVBAMMDENvY2tyb2FjaCBDQTAeFw0yNDAxMTIwMTM5MzVaFw0y
NTAxMTEwMTM5MzVaMC4xEDAOBgNVBAoMB0FyYWxpbmsxGjAYBgNVBAMMEWRldmlj
ZV8xOTQ5NTg1NTc4MIIBIjANBgkqhkiG9w0BAQEFAAOCAQ8AMIIBCgKCAQEAsCdf
PbuWY95kpmFpH9aWzfXSQlYs3Ca5LoeEQQlr5VV20HeKEpxzj6lnc4sjkGRSQf3W
cG7Hpjyu41BUi41ohbB0pqo6TT3UhIFHLcMAmYjmqxPBz5NCwe8fZ7TIZJWPNIuF
jfkrFKq3sqQ9FPkP1rvqM8C08VASlwUlshhY+kBaD+ayx2Ogvt9ZR2Ih1LxnDp5c
/N7JoTV6TvLzzC0D9QqE1xZqFS4hbm9oe+3MjzLbt1c1Vzy7crkZYaIneTh3HWDl
buDe5H3moyB1RWON7oT+jmYwt+fiUrQm8/pV/MBphbzaOVPZO8/0Qz5EE03YuxwD
X2DyF0//NWiEgbGa2QIDAQABo3gwdjAOBgNVHQ8BAf8EBAMCBaAwEwYDVR0lBAww
CgYIKwYBBQUHAwIwDwYDVR0TAQH/BAUwAwEB/zAdBgNVHQ4EFgQUwZc9FCbXLea0
kzymOl/XTHKggL0wHwYDVR0jBBgwFoAUwuyZjCbaNWlV5n/82GUWC6I53FgwDQYJ
KoZIhvcNAQELBQADggEBAI76fTcSz0d6QHDOsO5zuWYaVkiCw3evhf3X8+SKgqR/
NOR7WEWfaXHme/YHQ5GVjuVzlOAnkQbunjSWBns2z/0IE4LrayKPIIipg+Kb1o9C
LPajbpogEsjkf+brkFHDkj4RkEGr+dskQX1q+fq/xTVW3GF9+MinMKlExh/9X+og
c7rQR+jG1CEdyH8jgUNzgcDxgW2kbFW86rEcqTPQM9iORl2NciHb3RYCNTBQDCIa
vPLK2Xz3fLDsXi6oqXBbg/ue6ppfWC+cdtRJraQszd5GcMvelwORe7RdLkkd2VA+
d39/XYkDow/eeYCO7/k7EZpGlDsKXeZ9UE2ZTU0aTm0=
-----END CERTIFICATE-----
