Certificate:
    Data:
        Version: 3 (0x2)
        Serial Number: 17 (0x11)
        Signature Algorithm: sha256WithRSAEncryption
        Issuer: O=Cockroach, CN=Cockroach CA
        Validity
            Not Before: Jan 14 22:15:55 2024 GMT
            Not After : Jan 13 22:15:55 2025 GMT
        Subject: O=Aralink, CN=device_1949585578
        Subject Public Key Info:
            Public Key Algorithm: rsaEncryption
                Public-Key: (2048 bit)
                Modulus:
                    00:ee:dd:ab:42:f4:f2:dd:96:6f:c3:4a:14:15:3c:
                    34:db:c9:57:4e:dc:c9:87:fd:56:89:88:ed:69:7d:
                    39:77:c5:06:8a:bd:8d:92:c1:82:a2:d5:2f:97:b6:
                    14:1a:d0:50:4d:01:63:81:f5:e7:81:a1:18:1d:7c:
                    e0:5f:90:7b:72:1f:96:43:8d:ea:fe:03:bd:57:28:
                    fb:c9:36:ca:49:07:24:67:0f:2f:d5:dd:04:8f:b1:
                    a4:68:d3:c2:1e:d4:a5:93:8f:7e:f8:bf:48:48:94:
                    17:ca:22:bf:22:90:25:3c:29:a3:45:2b:5b:86:8f:
                    59:c1:2b:8e:b6:15:91:bf:4d:0a:85:46:f1:b4:27:
                    cd:04:53:fd:c4:74:af:d0:b2:e5:0c:d3:0f:93:f7:
                    50:9f:70:43:91:35:88:6d:cf:6a:46:b5:9b:7d:70:
                    f1:2a:1d:17:a4:ce:45:f4:f4:ce:ab:43:83:c1:f6:
                    af:61:5c:fe:1f:46:da:e4:c4:16:76:06:12:eb:0b:
                    7b:b4:9b:83:dd:72:b9:92:e3:ec:50:60:58:68:2c:
                    cf:21:03:21:6a:79:e5:ee:4f:87:62:a7:c7:d8:2c:
                    bf:b4:6b:b5:cb:14:17:e0:41:5d:5a:73:ce:50:d1:
                    48:8f:57:c2:01:a4:9b:60:a0:5b:6b:3f:32:38:9c:
                    31:29
                Exponent: 65537 (0x10001)
        X509v3 extensions:
            X509v3 Key Usage: critical
                Digital Signature, Key Encipherment
            X509v3 Extended Key Usage: 
                TLS Web Client Authentication
            X509v3 Basic Constraints: critical
                CA:TRUE
            X509v3 Subject Key Identifier: 
                37:BA:D7:F7:BF:E0:10:AD:B8:94:22:64:B3:87:C9:2F:6B:74:81:4C
            X509v3 Authority Key Identifier: 
                C2:EC:99:8C:26:DA:35:69:55:E6:7F:FC:D8:65:16:0B:A2:39:DC:58
    Signature Algorithm: sha256WithRSAEncryption
    Signature Value:
        94:28:9d:89:0e:eb:37:7a:f5:c7:18:d4:73:cb:d5:5b:80:2c:
        ac:98:7f:48:b5:af:7c:d3:af:bc:1f:8a:d5:84:cd:41:d7:c8:
        e9:6a:51:dc:8a:b6:4a:ee:6f:91:d1:66:5c:c6:03:81:ec:34:
        1c:c6:bf:f9:5f:6f:fe:5e:fc:6d:28:b8:33:6b:ea:22:a7:f6:
        eb:2d:be:36:88:46:59:68:ac:56:1d:82:e5:09:3f:5c:2a:f5:
        07:7f:1b:25:73:f8:a9:83:f7:c4:a9:34:d0:c3:37:ce:ff:ad:
        31:96:a3:48:c1:0e:91:85:2f:0a:f8:ab:7b:5a:ba:7c:bf:71:
        71:b4:bd:03:b9:e7:c5:77:c3:72:97:e5:a0:e6:b2:db:27:b3:
        d7:95:fb:76:9c:24:fd:13:0a:3a:13:0e:8b:1a:ab:b1:33:05:
        37:3a:8d:75:c6:6e:34:10:14:30:e0:92:2d:cc:fe:b6:ec:d0:
        97:b5:c5:d0:7d:d7:51:08:fd:a5:8b:02:f0:d7:28:57:a7:13:
        17:52:b7:7e:e5:b7:81:7c:61:39:5d:e6:ab:3a:23:b9:29:e0:
        f4:9c:7b:14:af:36:34:d2:b3:21:d0:b9:b5:33:a6:5b:41:03:
        89:d0:a9:10:2e:2e:2b:e5:d8:1f:35:af:18:7a:bb:12:c9:9a:
        7a:61:0e:0a
-----BEGIN CERTIFICATE-----
MIIDTDCCAjSgAwIBAgIBETANBgkqhkiG9w0BAQsFADArMRIwEAYDVQQKDAlDb2Nr
cm9hY2gxFTATBgNVBAMMDENvY2tyb2FjaCBDQTAeFw0yNDAxMTQyMjE1NTVaFw0y
NTAxMTMyMjE1NTVaMC4xEDAOBgNVBAoMB0FyYWxpbmsxGjAYBgNVBAMMEWRldmlj
ZV8xOTQ5NTg1NTc4MIIBIjANBgkqhkiG9w0BAQEFAAOCAQ8AMIIBCgKCAQEA7t2r
QvTy3ZZvw0oUFTw028lXTtzJh/1WiYjtaX05d8UGir2NksGCotUvl7YUGtBQTQFj
gfXngaEYHXzgX5B7ch+WQ43q/gO9Vyj7yTbKSQckZw8v1d0Ej7GkaNPCHtSlk49+
+L9ISJQXyiK/IpAlPCmjRStbho9ZwSuOthWRv00KhUbxtCfNBFP9xHSv0LLlDNMP
k/dQn3BDkTWIbc9qRrWbfXDxKh0XpM5F9PTOq0ODwfavYVz+H0ba5MQWdgYS6wt7
tJuD3XK5kuPsUGBYaCzPIQMhannl7k+HYqfH2Cy/tGu1yxQX4EFdWnPOUNFIj1fC
AaSbYKBbaz8yOJwxKQIDAQABo3gwdjAOBgNVHQ8BAf8EBAMCBaAwEwYDVR0lBAww
CgYIKwYBBQUHAwIwDwYDVR0TAQH/BAUwAwEB/zAdBgNVHQ4EFgQUN7rX97/gEK24
lCJks4fJL2t0gUwwHwYDVR0jBBgwFoAUwuyZjCbaNWlV5n/82GUWC6I53FgwDQYJ
KoZIhvcNAQELBQADggEBAJQonYkO6zd69ccY1HPL1VuALKyYf0i1r3zTr7wfitWE
zUHXyOlqUdyKtkrub5HRZlzGA4HsNBzGv/lfb/5e/G0ouDNr6iKn9ustvjaIRllo
rFYdguUJP1wq9Qd/GyVz+KmD98SpNNDDN87/rTGWo0jBDpGFLwr4q3tauny/cXG0
vQO558V3w3KX5aDmstsns9eV+3acJP0TCjoTDosaq7EzBTc6jXXGbjQQFDDgki3M
/rbs0Je1xdB911EI/aWLAvDXKFenExdSt37lt4F8YTld5qs6I7kp4PScexSvNjTS
syHQubUzpltBA4nQqRAuLivl2B81rxh6uxLJmnphDgo=
-----END CERTIFICATE-----
