Certificate:
    Data:
        Version: 3 (0x2)
        Serial Number: 18 (0x12)
        Signature Algorithm: sha256WithRSAEncryption
        Issuer: O=Cockroach, CN=Cockroach CA
        Validity
            Not Before: Jan 14 22:25:40 2024 GMT
            Not After : Jan 13 22:25:40 2025 GMT
        Subject: O=Aralink, CN=device_1949585578
        Subject Public Key Info:
            Public Key Algorithm: rsaEncryption
                Public-Key: (2048 bit)
                Modulus:
                    00:c5:30:b2:0a:0b:e8:06:56:5e:8e:ad:7e:4f:e2:
                    49:04:44:ce:9e:5e:df:19:3c:88:50:94:db:cd:ef:
                    fe:d5:17:1e:bc:04:0b:9f:51:7d:04:47:21:71:50:
                    b0:a3:d1:e4:43:7b:20:07:f6:ec:e2:a8:ec:83:9e:
                    c0:19:a8:5a:d2:ea:f9:48:f2:b0:f5:d5:89:c3:ab:
                    ed:49:75:40:2f:47:95:20:98:8e:e5:a2:9d:97:82:
                    50:55:7f:c9:ba:4a:c9:f5:67:f3:42:da:16:3a:1a:
                    b0:c2:a0:c2:9f:5c:ad:e2:33:79:24:21:01:3c:f5:
                    c9:35:1a:69:3c:c3:22:37:76:79:b6:e5:8d:2e:1a:
                    45:68:17:94:ba:d1:9d:cb:fd:8f:6c:c3:5d:70:b4:
                    e5:92:19:31:3d:9c:a3:8a:c5:34:6f:a8:b5:ee:81:
                    1a:75:b4:31:48:a0:f0:13:43:12:23:65:1c:7b:32:
                    53:3a:dd:62:bb:4c:98:a4:48:32:1b:49:e1:15:35:
                    85:99:51:75:20:0a:6a:3f:c8:9b:8a:7d:d8:35:81:
                    40:b4:a1:7e:d6:7e:50:2e:e7:62:ab:fc:ee:fd:ea:
                    51:4a:4a:55:f8:99:99:28:6a:9d:45:98:ea:92:d4:
                    99:28:47:62:ab:20:f4:dc:75:a0:19:a9:38:10:6c:
                    6a:8b
                Exponent: 65537 (0x10001)
        X509v3 extensions:
            X509v3 Key Usage: critical
                Digital Signature, Key Encipherment
            X509v3 Extended Key Usage: 
                TLS Web Client Authentication
            X509v3 Basic Constraints: critical
                CA:TRUE
            X509v3 Subject Key Identifier: 
                94:66:7A:5A:AD:F9:E2:09:9E:A5:ED:A7:26:73:08:D3:E8:1F:78:9D
            X509v3 Authority Key Identifier: 
                C2:EC:99:8C:26:DA:35:69:55:E6:7F:FC:D8:65:16:0B:A2:39:DC:58
    Signature Algorithm: sha256WithRSAEncryption
    Signature Value:
        5a:94:83:c0:26:86:f6:d1:d9:4d:d2:af:af:21:24:4e:a9:34:
        50:66:09:f5:98:52:d5:40:48:59:24:07:23:c3:e3:c4:61:d1:
        e2:ce:66:35:5a:a4:88:ef:66:94:62:4a:3d:e4:55:8b:15:d8:
        95:ff:3e:6a:7b:8a:34:9e:fe:b5:58:03:d0:7d:b3:d8:09:d0:
        11:5b:82:bf:9b:b9:5d:40:62:59:63:f4:81:14:d3:fb:5d:c0:
        a2:2b:66:a1:fa:bb:dc:73:d1:99:1e:5d:98:26:e5:c1:5f:ff:
        10:65:91:fa:b0:9e:71:70:23:e3:ff:63:c4:14:c9:d0:b6:42:
        7a:90:5c:b6:3a:9d:41:0f:be:6e:83:e2:f1:fb:39:ae:ad:ad:
        c5:6d:6c:08:71:a2:87:68:42:64:cc:03:2e:dd:25:4e:27:ab:
        26:61:e0:12:96:4e:58:8c:98:28:c2:65:0b:f5:ea:23:75:5c:
        b2:47:0d:40:2d:01:5a:de:ff:76:1f:55:91:19:8f:e3:fe:af:
        72:6e:0d:04:17:4d:a8:8a:c9:c9:d5:ec:b6:38:2b:b7:f6:f0:
        4c:0c:52:05:3c:a9:16:3a:76:33:e5:0a:4e:2c:4e:69:08:b7:
        01:b6:94:95:70:9d:61:af:36:43:dc:fc:86:1e:f9:e0:30:3c:
        69:33:f2:a9
-----BEGIN CERTIFICATE-----
MIIDTDCCAjSgAwIBAgIBEjANBgkqhkiG9w0BAQsFADArMRIwEAYDVQQKDAlDb2Nr
cm9hY2gxFTATBgNVBAMMDENvY2tyb2FjaCBDQTAeFw0yNDAxMTQyMjI1NDBaFw0y
NTAxMTMyMjI1NDBaMC4xEDAOBgNVBAoMB0FyYWxpbmsxGjAYBgNVBAMMEWRldmlj
ZV8xOTQ5NTg1NTc4MIIBIjANBgkqhkiG9w0BAQEFAAOCAQ8AMIIBCgKCAQEAxTCy
CgvoBlZejq1+T+JJBETOnl7fGTyIUJTbze/+1RcevAQLn1F9BEchcVCwo9HkQ3sg
B/bs4qjsg57AGaha0ur5SPKw9dWJw6vtSXVAL0eVIJiO5aKdl4JQVX/JukrJ9Wfz
QtoWOhqwwqDCn1yt4jN5JCEBPPXJNRppPMMiN3Z5tuWNLhpFaBeUutGdy/2PbMNd
cLTlkhkxPZyjisU0b6i17oEadbQxSKDwE0MSI2UcezJTOt1iu0yYpEgyG0nhFTWF
mVF1IApqP8ibin3YNYFAtKF+1n5QLudiq/zu/epRSkpV+JmZKGqdRZjqktSZKEdi
qyD03HWgGak4EGxqiwIDAQABo3gwdjAOBgNVHQ8BAf8EBAMCBaAwEwYDVR0lBAww
CgYIKwYBBQUHAwIwDwYDVR0TAQH/BAUwAwEB/zAdBgNVHQ4EFgQUlGZ6Wq354gme
pe2nJnMI0+gfeJ0wHwYDVR0jBBgwFoAUwuyZjCbaNWlV5n/82GUWC6I53FgwDQYJ
KoZIhvcNAQELBQADggEBAFqUg8AmhvbR2U3Sr68hJE6pNFBmCfWYUtVASFkkByPD
48Rh0eLOZjVapIjvZpRiSj3kVYsV2JX/Pmp7ijSe/rVYA9B9s9gJ0BFbgr+buV1A
Yllj9IEU0/tdwKIrZqH6u9xz0ZkeXZgm5cFf/xBlkfqwnnFwI+P/Y8QUydC2QnqQ
XLY6nUEPvm6D4vH7Oa6trcVtbAhxoodoQmTMAy7dJU4nqyZh4BKWTliMmCjCZQv1
6iN1XLJHDUAtAVre/3YfVZEZj+P+r3JuDQQXTaiKycnV7LY4K7f28EwMUgU8qRY6
djPlCk4sTmkItwG2lJVwnWGvNkPc/IYe+eAwPGkz8qk=
-----END CERTIFICATE-----
