Certificate:
    Data:
        Version: 3 (0x2)
        Serial Number: 4 (0x4)
        Signature Algorithm: sha256WithRSAEncryption
        Issuer: O=Cockroach, CN=Cockroach CA
        Validity
            Not Before: Jan  5 00:20:19 2024 GMT
            Not After : Jan  4 00:20:19 2025 GMT
        Subject: O=MPP, CN=192.168.31.133
        Subject Public Key Info:
            Public Key Algorithm: rsaEncryption
                Public-Key: (2048 bit)
                Modulus:
                    00:bb:bd:ba:89:4e:1f:23:dd:5b:3c:fb:30:eb:63:
                    95:10:9a:11:56:ba:05:60:9e:12:19:43:aa:91:ee:
                    8f:0d:af:18:3a:ef:e1:3f:b2:33:7d:50:1d:7c:c3:
                    41:e2:53:2a:36:08:ae:ce:44:a3:fd:32:b0:33:bd:
                    d3:02:68:94:cb:ce:9f:48:79:84:c3:64:43:ab:ea:
                    73:3b:05:20:19:91:8c:09:ab:49:43:dc:27:06:5b:
                    6c:cc:7e:2a:32:73:6a:42:d5:79:5a:16:75:d5:1a:
                    d7:52:ef:5d:b3:35:85:fa:6d:63:c2:c8:cd:4c:c1:
                    89:cf:1e:d1:aa:c0:0b:a6:1d:ca:5e:5d:c9:60:b0:
                    ef:ed:4c:b1:32:06:ef:66:d3:af:81:a3:af:8b:e5:
                    36:f4:b2:fa:03:cd:25:0a:18:d3:01:9a:76:35:d8:
                    f7:a5:48:77:cf:e9:d4:39:60:9f:b8:e2:62:3f:08:
                    0a:e3:28:ba:bd:17:68:d0:8d:af:d0:c4:de:c8:79:
                    7f:31:71:c0:da:b8:35:33:8e:e2:11:86:52:00:24:
                    09:c1:d9:97:61:c2:38:e9:72:d7:6b:d3:02:ed:24:
                    e6:f3:90:91:9c:4c:1e:a5:21:45:60:78:f5:c3:a1:
                    a1:11:97:68:1c:bf:bf:e8:e0:f5:26:ad:a7:6f:ac:
                    cd:6f
                Exponent: 65537 (0x10001)
        X509v3 extensions:
            X509v3 Key Usage: critical
                Digital Signature, Key Encipherment
            X509v3 Extended Key Usage: 
                TLS Web Client Authentication
            X509v3 Subject Key Identifier: 
                34:27:06:A3:B5:30:9B:1E:C0:14:4D:9F:39:20:A9:5F:69:2E:45:38
            X509v3 Authority Key Identifier: 
                C2:EC:99:8C:26:DA:35:69:55:E6:7F:FC:D8:65:16:0B:A2:39:DC:58
    Signature Algorithm: sha256WithRSAEncryption
    Signature Value:
        1f:39:9b:d4:d6:23:1a:53:d9:98:63:fe:fa:c9:7c:ba:f8:46:
        72:1b:2a:84:a2:03:65:e0:4a:ba:d4:25:63:c4:fa:94:1e:a3:
        12:de:dc:20:57:af:c0:32:5b:98:20:3a:f2:56:01:77:a2:91:
        f9:b8:78:97:36:a1:c7:0e:7a:14:fa:b0:a1:17:f2:d4:80:68:
        e1:e0:d7:c0:53:7e:08:c1:e3:fe:5d:7f:a7:d1:79:e8:c6:ee:
        d1:0d:d7:6f:8f:50:35:b6:9b:73:5b:f6:06:99:b7:12:7a:c9:
        30:66:e5:6d:27:a1:28:f4:0a:c3:ca:e1:e4:e1:9e:6d:4e:8d:
        39:b3:eb:12:5a:dd:39:a5:0a:44:1e:c3:35:44:f4:fb:be:7a:
        04:7f:1a:e8:df:bf:4c:66:91:9a:a5:aa:b5:76:69:53:4e:77:
        85:0b:7f:d8:63:58:c2:f1:19:87:63:66:b7:0d:44:e1:ea:a9:
        9e:e2:3e:12:4f:57:86:05:16:a0:51:13:a6:ea:73:a8:fb:fc:
        f2:f4:e5:0d:71:06:67:51:18:c9:d2:69:a3:59:56:75:fb:07:
        3b:57:56:fd:ef:ac:50:ad:01:fb:f8:f5:51:5d:28:d9:c6:52:
        e1:f8:04:33:7e:c1:78:79:7b:ed:c7:a5:9f:37:28:69:3b:54:
        cc:32:ac:ae
-----BEGIN CERTIFICATE-----
MIIDNDCCAhygAwIBAgIBBDANBgkqhkiG9w0BAQsFADArMRIwEAYDVQQKDAlDb2Nr
cm9hY2gxFTATBgNVBAMMDENvY2tyb2FjaCBDQTAeFw0yNDAxMDUwMDIwMTlaFw0y
NTAxMDQwMDIwMTlaMCcxDDAKBgNVBAoMA01QUDEXMBUGA1UEAwwOMTkyLjE2OC4z
MS4xMzMwggEiMA0GCSqGSIb3DQEBAQUAA4IBDwAwggEKAoIBAQC7vbqJTh8j3Vs8
+zDrY5UQmhFWugVgnhIZQ6qR7o8Nrxg67+E/sjN9UB18w0HiUyo2CK7ORKP9MrAz
vdMCaJTLzp9IeYTDZEOr6nM7BSAZkYwJq0lD3CcGW2zMfioyc2pC1XlaFnXVGtdS
712zNYX6bWPCyM1MwYnPHtGqwAumHcpeXclgsO/tTLEyBu9m06+Bo6+L5Tb0svoD
zSUKGNMBmnY12PelSHfP6dQ5YJ+44mI/CArjKLq9F2jQja/QxN7IeX8xccDauDUz
juIRhlIAJAnB2Zdhwjjpctdr0wLtJObzkJGcTB6lIUVgePXDoaERl2gcv7/o4PUm
radvrM1vAgMBAAGjZzBlMA4GA1UdDwEB/wQEAwIFoDATBgNVHSUEDDAKBggrBgEF
BQcDAjAdBgNVHQ4EFgQUNCcGo7Uwmx7AFE2fOSCpX2kuRTgwHwYDVR0jBBgwFoAU
wuyZjCbaNWlV5n/82GUWC6I53FgwDQYJKoZIhvcNAQELBQADggEBAB85m9TWIxpT
2Zhj/vrJfLr4RnIbKoSiA2XgSrrUJWPE+pQeoxLe3CBXr8AyW5ggOvJWAXeikfm4
eJc2occOehT6sKEX8tSAaOHg18BTfgjB4/5df6fReejG7tEN12+PUDW2m3Nb9gaZ
txJ6yTBm5W0noSj0CsPK4eThnm1OjTmz6xJa3TmlCkQewzVE9Pu+egR/Gujfv0xm
kZqlqrV2aVNOd4ULf9hjWMLxGYdjZrcNROHqqZ7iPhJPV4YFFqBRE6bqc6j7/PL0
5Q1xBmdRGMnSaaNZVnX7BztXVv3vrFCtAfv49VFdKNnGUuH4BDN+wXh5e+3HpZ83
KGk7VMwyrK4=
-----END CERTIFICATE-----
