Certificate:
    Data:
        Version: 3 (0x2)
        Serial Number: 2 (0x2)
        Signature Algorithm: sha256WithRSAEncryption
        Issuer: O=Cockroach, CN=Cockroach CA
        Validity
            Not Before: Jan  4 22:31:24 2024 GMT
            Not After : Jan  3 22:31:24 2025 GMT
        Subject: O=ANZ, CN=device_1
        Subject Public Key Info:
            Public Key Algorithm: rsaEncryption
                Public-Key: (2048 bit)
                Modulus:
                    00:e3:dc:48:8e:77:57:f9:3c:24:ed:7e:3c:24:cd:
                    db:fd:87:42:cf:d5:6b:ff:70:85:d0:b2:21:30:86:
                    f9:1b:bc:8e:eb:9d:b2:c4:47:b9:6c:37:7b:d6:03:
                    2b:4d:0d:7c:17:43:4a:f8:4d:1c:ab:ce:f2:31:f7:
                    92:58:f3:c0:25:8a:65:95:6c:f1:69:dc:c9:37:61:
                    dd:41:e9:ba:c4:cd:a6:22:49:c2:6e:40:36:ad:d8:
                    c5:fa:6d:6b:9a:2b:8f:ec:bf:ec:2d:16:56:ad:37:
                    ae:2e:f1:57:47:0d:42:83:94:26:44:cc:fe:6a:64:
                    7c:01:8a:82:5e:90:32:5e:57:f9:a7:0a:f6:f3:74:
                    f3:99:94:f1:b6:d6:03:b9:f1:ea:03:75:8c:38:10:
                    b5:72:0d:55:ac:cf:23:00:d9:2a:b3:ec:f0:bd:fb:
                    20:95:0f:9a:11:e7:bd:54:1b:a9:47:eb:01:73:93:
                    77:27:de:f2:29:a9:e5:81:51:97:7a:a1:92:16:f2:
                    cb:a0:a9:20:a8:5c:40:97:30:1a:e3:89:9d:d1:6c:
                    01:d8:29:03:af:66:e7:cb:2b:f8:b1:a3:87:6e:d2:
                    0a:1a:49:96:9e:ed:24:0d:a2:22:a5:96:ce:e4:f8:
                    2b:17:ab:5e:d4:26:76:e0:9b:84:71:43:65:b3:2c:
                    e5:1f
                Exponent: 65537 (0x10001)
        X509v3 extensions:
            X509v3 Key Usage: critical
                Digital Signature, Key Encipherment
            X509v3 Extended Key Usage: 
                TLS Web Client Authentication
            X509v3 Subject Alternative Name: 
                DNS:root
            X509v3 Subject Key Identifier: 
                D0:5C:AE:05:90:99:9D:16:D6:2A:22:8E:E8:F8:FD:58:AA:B7:CE:24
            X509v3 Authority Key Identifier: 
                C2:EC:99:8C:26:DA:35:69:55:E6:7F:FC:D8:65:16:0B:A2:39:DC:58
    Signature Algorithm: sha256WithRSAEncryption
    Signature Value:
        6f:f8:77:f1:56:ef:5b:5f:25:7a:bf:04:49:b8:60:25:d3:07:
        99:8f:f3:b9:16:3a:fb:fc:c5:68:d4:21:e8:63:7c:9a:b0:9c:
        cf:9b:cc:de:26:17:11:f2:c4:fc:fb:0a:a8:23:68:5d:56:92:
        a6:90:f5:6b:2e:ad:80:e9:03:29:04:da:aa:93:87:04:d7:18:
        73:77:62:3a:cc:6b:bf:50:a5:dc:32:58:48:b3:b4:95:63:e2:
        51:91:10:35:6b:f1:d6:00:b9:22:e9:23:d9:d2:95:f0:d4:5b:
        56:2d:5f:5c:b6:cd:95:01:8b:e7:33:13:71:f0:d5:f6:0c:15:
        bc:7f:5b:0a:2b:de:0c:f1:5b:fd:2a:f9:dd:d7:25:5c:9f:7f:
        6c:ec:83:46:f5:c8:e2:15:64:ee:38:71:da:1b:1e:db:ce:bc:
        04:23:c6:57:ba:a8:e3:7d:7b:1d:f1:e4:ba:bf:6c:88:a0:b0:
        7a:63:b0:f7:f9:11:2d:3e:42:56:e2:9c:0f:1e:78:28:61:41:
        0f:72:1d:af:e8:74:7e:f8:6a:3c:d1:3f:4a:5c:98:03:a7:45:
        94:23:f4:d5:6d:b7:59:57:bf:de:3d:e1:17:a2:44:ff:89:b6:
        ed:46:c4:18:a4:28:93:2f:f2:d0:6d:a6:ee:0b:6f:ca:b1:42:
        81:94:3a:6b
-----BEGIN CERTIFICATE-----
MIIDPzCCAiegAwIBAgIBAjANBgkqhkiG9w0BAQsFADArMRIwEAYDVQQKDAlDb2Nr
cm9hY2gxFTATBgNVBAMMDENvY2tyb2FjaCBDQTAeFw0yNDAxMDQyMjMxMjRaFw0y
NTAxMDMyMjMxMjRaMCExDDAKBgNVBAoMA0FOWjERMA8GA1UEAwwIZGV2aWNlXzEw
ggEiMA0GCSqGSIb3DQEBAQUAA4IBDwAwggEKAoIBAQDj3EiOd1f5PCTtfjwkzdv9
h0LP1Wv/cIXQsiEwhvkbvI7rnbLER7lsN3vWAytNDXwXQ0r4TRyrzvIx95JY88Al
imWVbPFp3Mk3Yd1B6brEzaYiScJuQDat2MX6bWuaK4/sv+wtFlatN64u8VdHDUKD
lCZEzP5qZHwBioJekDJeV/mnCvbzdPOZlPG21gO58eoDdYw4ELVyDVWszyMA2Sqz
7PC9+yCVD5oR571UG6lH6wFzk3cn3vIpqeWBUZd6oZIW8sugqSCoXECXMBrjiZ3R
bAHYKQOvZufLK/ixo4du0goaSZae7SQNoiKlls7k+CsXq17UJnbgm4RxQ2WzLOUf
AgMBAAGjeDB2MA4GA1UdDwEB/wQEAwIFoDATBgNVHSUEDDAKBggrBgEFBQcDAjAP
BgNVHREECDAGggRyb290MB0GA1UdDgQWBBTQXK4FkJmdFtYqIo7o+P1YqrfOJDAf
BgNVHSMEGDAWgBTC7JmMJto1aVXmf/zYZRYLojncWDANBgkqhkiG9w0BAQsFAAOC
AQEAb/h38VbvW18ler8ESbhgJdMHmY/zuRY6+/zFaNQh6GN8mrCcz5vM3iYXEfLE
/PsKqCNoXVaSppD1ay6tgOkDKQTaqpOHBNcYc3diOsxrv1Cl3DJYSLO0lWPiUZEQ
NWvx1gC5Iukj2dKV8NRbVi1fXLbNlQGL5zMTcfDV9gwVvH9bCiveDPFb/Sr53dcl
XJ9/bOyDRvXI4hVk7jhx2hse2868BCPGV7qo4317HfHkur9siKCwemOw9/kRLT5C
VuKcDx54KGFBD3Idr+h0fvhqPNE/SlyYA6dFlCP01W23WVe/3j3hF6JE/4m27UbE
GKQoky/y0G2m7gtvyrFCgZQ6aw==
-----END CERTIFICATE-----
